---
triple:          'arm64-apple-darwin'
binary-path:     ir_codegen
relocations:
  - { offsetInCU: 0x44, offset: 0x44, size: 0x8, addend: 0x0, symName: __ZN4llvm30VerifyDisableABIBreakingChecksE, symObjAddr: 0x8E00, symBinAddr: 0x100010000, symSize: 0x0 }
  - { offsetInCU: 0x3AEA7, offset: 0x3AEA7, size: 0x8, addend: 0x0, symName: __ZNSt3__17nulloptE, symObjAddr: 0x8EFE, symBinAddr: 0x10000B97E, symSize: 0x0 }
  - { offsetInCU: 0x4D16C, offset: 0x4D16C, size: 0x8, addend: 0x0, symName: __ZNSt3__124__put_character_sequenceB8ue170006IcNS_11char_traitsIcEEEERNS_13basic_ostreamIT_T0_EES7_PKS4_m, symObjAddr: 0x3C30, symBinAddr: 0x1000062B0, symSize: 0x1EC }
  - { offsetInCU: 0x4DFFC, offset: 0x4DFFC, size: 0x8, addend: 0x0, symName: __ZNSt3__17advanceB8ue170006IPK7AstNodellvEEvRT_T0_, symObjAddr: 0x4E2C, symBinAddr: 0x1000074AC, symSize: 0x38 }
  - { offsetInCU: 0x4E08C, offset: 0x4E08C, size: 0x8, addend: 0x0, symName: __ZNSt3__17advanceB8ue170006IP7AstNodellvEEvRT_T0_, symObjAddr: 0x5754, symBinAddr: 0x100007DD4, symSize: 0x38 }
  - { offsetInCU: 0x50FEC, offset: 0x50FEC, size: 0x8, addend: 0x0, symName: __ZNSt3__1lsB8ue170006IcNS_11char_traitsIcEENS_9allocatorIcEEEERNS_13basic_ostreamIT_T0_EES9_RKNS_12basic_stringIS6_S7_T1_EE, symObjAddr: 0x46C, symBinAddr: 0x100002AEC, symSize: 0x4C }
  - { offsetInCU: 0x51047, offset: 0x51047, size: 0x8, addend: 0x0, symName: __ZNSt3__1lsB8ue170006INS_11char_traitsIcEEEERNS_13basic_ostreamIcT_EES6_PKc, symObjAddr: 0x4B8, symBinAddr: 0x100002B38, symSize: 0x48 }
  - { offsetInCU: 0x51090, offset: 0x51090, size: 0x8, addend: 0x0, symName: __ZNSt3__14endlB8ue170006IcNS_11char_traitsIcEEEERNS_13basic_ostreamIT_T0_EES7_, symObjAddr: 0x52C, symBinAddr: 0x100002BAC, symSize: 0x58 }
  - { offsetInCU: 0x510D2, offset: 0x510D2, size: 0x8, addend: 0x0, symName: __ZNSt3__1eqB8ue170006IcNS_11char_traitsIcEENS_9allocatorIcEEEEbRKNS_12basic_stringIT_T0_T1_EEPKS6_, symObjAddr: 0x6FC, symBinAddr: 0x100002D7C, symSize: 0xAC }
  - { offsetInCU: 0x5113D, offset: 0x5113D, size: 0x8, addend: 0x0, symName: __ZNSt3__1neB8ue170006IPcEEbRKNS_11__wrap_iterIT_EES6_, symObjAddr: 0xD20, symBinAddr: 0x1000033A0, symSize: 0x34 }
  - { offsetInCU: 0x51183, offset: 0x51183, size: 0x8, addend: 0x0, symName: __ZNSt3__1neB8ue170006IPNS_12basic_stringIcNS_11char_traitsIcEENS_9allocatorIcEEEEEEbRKNS_11__wrap_iterIT_EESC_, symObjAddr: 0xE8C, symBinAddr: 0x10000350C, symSize: 0x34 }
  - { offsetInCU: 0x511C9, offset: 0x511C9, size: 0x8, addend: 0x0, symName: __ZNSt3__1eqB8ue170006IPcEEbRKNS_11__wrap_iterIT_EES6_, symObjAddr: 0x144C, symBinAddr: 0x100003ACC, symSize: 0x48 }
  - { offsetInCU: 0x5120F, offset: 0x5120F, size: 0x8, addend: 0x0, symName: __ZNSt3__1eqB8ue170006IPNS_12basic_stringIcNS_11char_traitsIcEENS_9allocatorIcEEEEEEbRKNS_11__wrap_iterIT_EESC_, symObjAddr: 0x14AC, symBinAddr: 0x100003B2C, symSize: 0x48 }
  - { offsetInCU: 0x51255, offset: 0x51255, size: 0x8, addend: 0x0, symName: __ZNSt3__118__constexpr_strlenB8ue170006EPKc, symObjAddr: 0x15E8, symBinAddr: 0x100003C68, symSize: 0x24 }
  - { offsetInCU: 0x51283, offset: 0x51283, size: 0x8, addend: 0x0, symName: __ZNSt3__1neB8ue170006IP7AstNodeEEbRKNS_11__wrap_iterIT_EES7_, symObjAddr: 0x18BC, symBinAddr: 0x100003F3C, symSize: 0x34 }
  - { offsetInCU: 0x512C9, offset: 0x512C9, size: 0x8, addend: 0x0, symName: __ZNSt3__1eqB8ue170006IP7AstNodeEEbRKNS_11__wrap_iterIT_EES7_, symObjAddr: 0x19AC, symBinAddr: 0x10000402C, symSize: 0x48 }
  - { offsetInCU: 0x5130F, offset: 0x5130F, size: 0x8, addend: 0x0, symName: __ZNSt3__119__libcpp_deallocateB8ue170006EPvmm, symObjAddr: 0x22EC, symBinAddr: 0x10000496C, symSize: 0x60 }
  - { offsetInCU: 0x5137A, offset: 0x5137A, size: 0x8, addend: 0x0, symName: __ZNSt3__124__is_overaligned_for_newB8ue170006Em, symObjAddr: 0x234C, symBinAddr: 0x1000049CC, symSize: 0x20 }
  - { offsetInCU: 0x513AA, offset: 0x513AA, size: 0x8, addend: 0x0, symName: __ZNSt3__127__do_deallocate_handle_sizeB8ue170006IJSt11align_val_tEEEvPvmDpT_, symObjAddr: 0x236C, symBinAddr: 0x1000049EC, symSize: 0x30 }
  - { offsetInCU: 0x51401, offset: 0x51401, size: 0x8, addend: 0x0, symName: __ZNSt3__127__do_deallocate_handle_sizeB8ue170006IJEEEvPvmDpT_, symObjAddr: 0x239C, symBinAddr: 0x100004A1C, symSize: 0x28 }
  - { offsetInCU: 0x51442, offset: 0x51442, size: 0x8, addend: 0x0, symName: __ZNSt3__124__libcpp_operator_deleteB8ue170006IJPvSt11align_val_tEEEvDpT_, symObjAddr: 0x23C4, symBinAddr: 0x100004A44, symSize: 0x2C }
  - { offsetInCU: 0x5148E, offset: 0x5148E, size: 0x8, addend: 0x0, symName: __ZNSt3__124__libcpp_operator_deleteB8ue170006IJPvEEEvDpT_, symObjAddr: 0x23F0, symBinAddr: 0x100004A70, symSize: 0x24 }
  - { offsetInCU: 0x514F8, offset: 0x514F8, size: 0x8, addend: 0x0, symName: __ZNSt3__122__make_exception_guardB8ue170006INS_6vectorI7AstNodeNS_9allocatorIS2_EEE16__destroy_vectorEEENS_28__exception_guard_exceptionsIT_EES8_, symObjAddr: 0x2708, symBinAddr: 0x100004D88, symSize: 0x40 }
  - { offsetInCU: 0x5152F, offset: 0x5152F, size: 0x8, addend: 0x0, symName: __ZNSt3__119__allocate_at_leastB8ue170006INS_9allocatorI7AstNodeEEEENS_19__allocation_resultINS_16allocator_traitsIT_E7pointerEEERS6_m, symObjAddr: 0x29F0, symBinAddr: 0x100005070, symSize: 0x40 }
  - { offsetInCU: 0x51575, offset: 0x51575, size: 0x8, addend: 0x0, symName: __ZNSt3__13minB8ue170006ImEERKT_S3_S3_, symObjAddr: 0x2B2C, symBinAddr: 0x1000051AC, symSize: 0x2C }
  - { offsetInCU: 0x517A5, offset: 0x517A5, size: 0x8, addend: 0x0, symName: __ZNSt3__13minB8ue170006ImNS_6__lessIvvEEEERKT_S5_S5_T0_, symObjAddr: 0x2B90, symBinAddr: 0x100005210, symSize: 0x54 }
  - { offsetInCU: 0x51848, offset: 0x51848, size: 0x8, addend: 0x0, symName: __ZNSt3__120__throw_length_errorB8ue170006EPKc, symObjAddr: 0x2C34, symBinAddr: 0x1000052B4, symSize: 0x64 }
  - { offsetInCU: 0x51874, offset: 0x51874, size: 0x8, addend: 0x0, symName: __ZNSt3__117__libcpp_allocateB8ue170006Emm, symObjAddr: 0x2DA4, symBinAddr: 0x100005424, symSize: 0x60 }
  - { offsetInCU: 0x518D3, offset: 0x518D3, size: 0x8, addend: 0x0, symName: __ZNSt3__121__libcpp_operator_newB8ue170006IJmSt11align_val_tEEEPvDpT_, symObjAddr: 0x2E04, symBinAddr: 0x100005484, symSize: 0x2C }
  - { offsetInCU: 0x51923, offset: 0x51923, size: 0x8, addend: 0x0, symName: __ZNSt3__121__libcpp_operator_newB8ue170006IJmEEEPvDpT_, symObjAddr: 0x2E30, symBinAddr: 0x1000054B0, symSize: 0x24 }
  - { offsetInCU: 0x5195E, offset: 0x5195E, size: 0x8, addend: 0x0, symName: __ZNSt3__112__to_addressB8ue170006I7AstNodeEEPT_S3_, symObjAddr: 0x2F4C, symBinAddr: 0x1000055CC, symSize: 0x14 }
  - { offsetInCU: 0x51995, offset: 0x51995, size: 0x8, addend: 0x0, symName: __ZNSt3__130__uninitialized_allocator_copyB8ue170006INS_9allocatorI7AstNodeEEPS2_S4_S4_EET2_RT_T0_T1_S5_, symObjAddr: 0x2FFC, symBinAddr: 0x10000567C, symSize: 0x80 }
  - { offsetInCU: 0x51A39, offset: 0x51A39, size: 0x8, addend: 0x0, symName: __ZNSt3__114__unwrap_rangeB8ue170006IP7AstNodeS2_EENS_4pairIT0_S4_EET_S6_, symObjAddr: 0x30EC, symBinAddr: 0x10000576C, symSize: 0x60 }
  - { offsetInCU: 0x51A88, offset: 0x51A88, size: 0x8, addend: 0x0, symName: __ZNSt3__135__uninitialized_allocator_copy_implB8ue170006INS_9allocatorI7AstNodeEEPS2_S4_S4_EET2_RT_T0_T1_S5_, symObjAddr: 0x314C, symBinAddr: 0x1000057CC, symSize: 0xF4 }
  - { offsetInCU: 0x51B2D, offset: 0x51B2D, size: 0x8, addend: 0x0, symName: __ZNSt3__113__unwrap_iterB8ue170006IP7AstNodeNS_18__unwrap_iter_implIS2_Lb1EEELi0EEEDTclsrT0_8__unwrapclsr3stdE7declvalIT_EEEES6_, symObjAddr: 0x3240, symBinAddr: 0x1000058C0, symSize: 0x24 }
  - { offsetInCU: 0x51B73, offset: 0x51B73, size: 0x8, addend: 0x0, symName: __ZNSt3__113__rewrap_iterB8ue170006IP7AstNodeS2_NS_18__unwrap_iter_implIS2_Lb1EEEEET_S5_T0_, symObjAddr: 0x3264, symBinAddr: 0x1000058E4, symSize: 0x3C }
  - { offsetInCU: 0x51BCB, offset: 0x51BCB, size: 0x8, addend: 0x0, symName: __ZNSt3__19make_pairB8ue170006IP7AstNodeS2_EENS_4pairINS_18__unwrap_ref_decayIT_E4typeENS4_IT0_E4typeEEEOS5_OS8_, symObjAddr: 0x32A0, symBinAddr: 0x100005920, symSize: 0x38 }
  - { offsetInCU: 0x51CF2, offset: 0x51CF2, size: 0x8, addend: 0x0, symName: __ZNSt3__122__make_exception_guardB8ue170006INS_29_AllocatorDestroyRangeReverseINS_9allocatorI7AstNodeEEPS3_EEEENS_28__exception_guard_exceptionsIT_EES8_, symObjAddr: 0x3348, symBinAddr: 0x1000059C8, symSize: 0x4C }
  - { offsetInCU: 0x51D2A, offset: 0x51D2A, size: 0x8, addend: 0x0, symName: __ZNSt3__119__allocator_destroyB8ue170006INS_9allocatorI7AstNodeEENS_16reverse_iteratorIPS2_EES6_EEvRT_T0_T1_, symObjAddr: 0x3654, symBinAddr: 0x100005CD4, symSize: 0x70 }
  - { offsetInCU: 0x51D91, offset: 0x51D91, size: 0x8, addend: 0x0, symName: __ZNSt3__1neB8ue170006IP7AstNodeS2_EEbRKNS_16reverse_iteratorIT_EERKNS3_IT0_EE, symObjAddr: 0x36F8, symBinAddr: 0x100005D78, symSize: 0x48 }
  - { offsetInCU: 0x51DE0, offset: 0x51DE0, size: 0x8, addend: 0x0, symName: __ZNSt3__112__to_addressB8ue170006INS_16reverse_iteratorIP7AstNodeEEvEEu7__decayIDTclsr19__to_address_helperIT_EE6__callclsr3stdE7declvalIRKS5_EEEEES7_, symObjAddr: 0x376C, symBinAddr: 0x100005DEC, symSize: 0x24 }
  - { offsetInCU: 0x51E95, offset: 0x51E95, size: 0x8, addend: 0x0, symName: __ZNSt3__116__pad_and_outputB8ue170006IcNS_11char_traitsIcEEEENS_19ostreambuf_iteratorIT_T0_EES6_PKS4_S8_S8_RNS_8ios_baseES4_, symObjAddr: 0x3E38, symBinAddr: 0x1000064B8, symSize: 0x240 }
  - { offsetInCU: 0x51F70, offset: 0x51F70, size: 0x8, addend: 0x0, symName: __ZNSt3__112__to_addressB8ue170006IcEEPT_S2_, symObjAddr: 0x42A8, symBinAddr: 0x100006928, symSize: 0x14 }
  - { offsetInCU: 0x51FA7, offset: 0x51FA7, size: 0x8, addend: 0x0, symName: __ZNSt3__19use_facetB8ue170006INS_5ctypeIcEEEERKT_RKNS_6localeE, symObjAddr: 0x4454, symBinAddr: 0x100006AD4, symSize: 0x2C }
  - { offsetInCU: 0x52478, offset: 0x52478, size: 0x8, addend: 0x0, symName: __ZNSt3__112__to_addressB8ue170006IKcEEPT_S3_, symObjAddr: 0x4514, symBinAddr: 0x100006B94, symSize: 0x14 }
  - { offsetInCU: 0x524E2, offset: 0x524E2, size: 0x8, addend: 0x0, symName: __ZNSt3__18distanceB8ue170006IPK7AstNodeEENS_15iterator_traitsIT_E15difference_typeES5_S5_, symObjAddr: 0x4BBC, symBinAddr: 0x10000723C, symSize: 0x2C }
  - { offsetInCU: 0x52528, offset: 0x52528, size: 0x8, addend: 0x0, symName: __ZNSt3__14nextB8ue170006IPK7AstNodeEENS_9enable_ifIXsr29__has_input_iterator_categoryIT_EE5valueES5_E4typeES5_NS_15iterator_traitsIS5_E15difference_typeE, symObjAddr: 0x4BE8, symBinAddr: 0x100007268, symSize: 0x34 }
  - { offsetInCU: 0x5256E, offset: 0x5256E, size: 0x8, addend: 0x0, symName: __ZNSt3__14copyB8ue170006IPK7AstNodePS1_EET0_T_S6_S5_, symObjAddr: 0x4C1C, symBinAddr: 0x10000729C, symSize: 0x40 }
  - { offsetInCU: 0x525CC, offset: 0x525CC, size: 0x8, addend: 0x0, symName: __ZNSt3__16__copyB8ue170006INS_17_ClassicAlgPolicyEPK7AstNodeS4_PS2_EENS_4pairIT0_T2_EES7_T1_S8_, symObjAddr: 0x4CE8, symBinAddr: 0x100007368, symSize: 0x44 }
  - { offsetInCU: 0x5263C, offset: 0x5263C, size: 0x8, addend: 0x0, symName: __ZNSt3__121__convert_to_integralB8ue170006El, symObjAddr: 0x4E64, symBinAddr: 0x1000074E4, symSize: 0x14 }
  - { offsetInCU: 0x5266A, offset: 0x5266A, size: 0x8, addend: 0x0, symName: __ZNSt3__19__advanceB8ue170006IPK7AstNodeEEvRT_NS_15iterator_traitsIS4_E15difference_typeENS_26random_access_iterator_tagE, symObjAddr: 0x4E78, symBinAddr: 0x1000074F8, symSize: 0x28 }
  - { offsetInCU: 0x526B7, offset: 0x526B7, size: 0x8, addend: 0x0, symName: __ZNSt3__130__uninitialized_allocator_copyB8ue170006INS_9allocatorI7AstNodeEEPKS2_S5_PS2_EET2_RT_T0_T1_S7_, symObjAddr: 0x4EA0, symBinAddr: 0x100007520, symSize: 0x80 }
  - { offsetInCU: 0x5275B, offset: 0x5275B, size: 0x8, addend: 0x0, symName: __ZNSt3__114__unwrap_rangeB8ue170006IPK7AstNodeS3_EENS_4pairIT0_S5_EET_S7_, symObjAddr: 0x4F20, symBinAddr: 0x1000075A0, symSize: 0x60 }
  - { offsetInCU: 0x527AA, offset: 0x527AA, size: 0x8, addend: 0x0, symName: __ZNSt3__135__uninitialized_allocator_copy_implB8ue170006INS_9allocatorI7AstNodeEEPKS2_S5_PS2_EET2_RT_T0_T1_S7_, symObjAddr: 0x4F80, symBinAddr: 0x100007600, symSize: 0xF4 }
  - { offsetInCU: 0x5284F, offset: 0x5284F, size: 0x8, addend: 0x0, symName: __ZNSt3__19make_pairB8ue170006IPK7AstNodeS3_EENS_4pairINS_18__unwrap_ref_decayIT_E4typeENS5_IT0_E4typeEEEOS6_OS9_, symObjAddr: 0x5074, symBinAddr: 0x1000076F4, symSize: 0x38 }
  - { offsetInCU: 0x528A1, offset: 0x528A1, size: 0x8, addend: 0x0, symName: __ZNSt3__113__unwrap_iterB8ue170006IPK7AstNodeNS_18__unwrap_iter_implIS3_Lb1EEELi0EEEDTclsrT0_8__unwrapclsr3stdE7declvalIT_EEEES7_, symObjAddr: 0x50AC, symBinAddr: 0x10000772C, symSize: 0x24 }
  - { offsetInCU: 0x52A0F, offset: 0x52A0F, size: 0x8, addend: 0x0, symName: __ZNSt3__112__to_addressB8ue170006IK7AstNodeEEPT_S4_, symObjAddr: 0x5164, symBinAddr: 0x1000077E4, symSize: 0x14 }
  - { offsetInCU: 0x52A46, offset: 0x52A46, size: 0x8, addend: 0x0, symName: __ZNSt3__123__dispatch_copy_or_moveB8ue170006INS_17_ClassicAlgPolicyENS_11__copy_loopIS1_EENS_14__copy_trivialEPK7AstNodeS7_PS5_EENS_4pairIT2_T4_EESA_T3_SB_, symObjAddr: 0x51DC, symBinAddr: 0x10000785C, symSize: 0x44 }
  - { offsetInCU: 0x52AC8, offset: 0x52AC8, size: 0x8, addend: 0x0, symName: __ZNSt3__121__unwrap_and_dispatchB8ue170006INS_10__overloadINS_11__copy_loopINS_17_ClassicAlgPolicyEEENS_14__copy_trivialEEEPK7AstNodeS9_PS7_Li0EEENS_4pairIT0_T2_EESC_T1_SD_, symObjAddr: 0x5220, symBinAddr: 0x1000078A0, symSize: 0xB4 }
  - { offsetInCU: 0x52CCB, offset: 0x52CCB, size: 0x8, addend: 0x0, symName: __ZNSt3__19make_pairB8ue170006IPK7AstNodePS1_EENS_4pairINS_18__unwrap_ref_decayIT_E4typeENS6_IT0_E4typeEEEOS7_OSA_, symObjAddr: 0x535C, symBinAddr: 0x1000079DC, symSize: 0x38 }
  - { offsetInCU: 0x52D1D, offset: 0x52D1D, size: 0x8, addend: 0x0, symName: __ZNSt3__114__rewrap_rangeB8ue170006IPK7AstNodeS3_EET_S4_T0_, symObjAddr: 0x5394, symBinAddr: 0x100007A14, symSize: 0x2C }
  - { offsetInCU: 0x52D6C, offset: 0x52D6C, size: 0x8, addend: 0x0, symName: __ZNSt3__18distanceB8ue170006IP7AstNodeEENS_15iterator_traitsIT_E15difference_typeES4_S4_, symObjAddr: 0x5670, symBinAddr: 0x100007CF0, symSize: 0x2C }
  - { offsetInCU: 0x52DB2, offset: 0x52DB2, size: 0x8, addend: 0x0, symName: __ZNSt3__14nextB8ue170006IP7AstNodeEENS_9enable_ifIXsr29__has_input_iterator_categoryIT_EE5valueES4_E4typeES4_NS_15iterator_traitsIS4_E15difference_typeE, symObjAddr: 0x569C, symBinAddr: 0x100007D1C, symSize: 0x34 }
  - { offsetInCU: 0x52DF8, offset: 0x52DF8, size: 0x8, addend: 0x0, symName: __ZNSt3__14copyB8ue170006IP7AstNodeS2_EET0_T_S4_S3_, symObjAddr: 0x56D0, symBinAddr: 0x100007D50, symSize: 0x40 }
  - { offsetInCU: 0x52E56, offset: 0x52E56, size: 0x8, addend: 0x0, symName: __ZNSt3__16__copyB8ue170006INS_17_ClassicAlgPolicyEP7AstNodeS3_S3_EENS_4pairIT0_T2_EES5_T1_S6_, symObjAddr: 0x5710, symBinAddr: 0x100007D90, symSize: 0x44 }
  - { offsetInCU: 0x52EC6, offset: 0x52EC6, size: 0x8, addend: 0x0, symName: __ZNSt3__19__advanceB8ue170006IP7AstNodeEEvRT_NS_15iterator_traitsIS3_E15difference_typeENS_26random_access_iterator_tagE, symObjAddr: 0x578C, symBinAddr: 0x100007E0C, symSize: 0x28 }
  - { offsetInCU: 0x52F13, offset: 0x52F13, size: 0x8, addend: 0x0, symName: __ZNSt3__123__dispatch_copy_or_moveB8ue170006INS_17_ClassicAlgPolicyENS_11__copy_loopIS1_EENS_14__copy_trivialEP7AstNodeS6_S6_EENS_4pairIT2_T4_EES8_T3_S9_, symObjAddr: 0x57B4, symBinAddr: 0x100007E34, symSize: 0x44 }
  - { offsetInCU: 0x52F95, offset: 0x52F95, size: 0x8, addend: 0x0, symName: __ZNSt3__121__unwrap_and_dispatchB8ue170006INS_10__overloadINS_11__copy_loopINS_17_ClassicAlgPolicyEEENS_14__copy_trivialEEEP7AstNodeS8_S8_Li0EEENS_4pairIT0_T2_EESA_T1_SB_, symObjAddr: 0x57F8, symBinAddr: 0x100007E78, symSize: 0xB4 }
  - { offsetInCU: 0x53029, offset: 0x53029, size: 0x8, addend: 0x0, symName: __ZNSt3__114__rewrap_rangeB8ue170006IP7AstNodeS2_EET_S3_T0_, symObjAddr: 0x5934, symBinAddr: 0x100007FB4, symSize: 0x2C }
  - { offsetInCU: 0x53078, offset: 0x53078, size: 0x8, addend: 0x0, symName: __ZNSt3__110__distanceB8ue170006IP7AstNodeEENS_15iterator_traitsIT_E15difference_typeES4_S4_NS_26random_access_iterator_tagE, symObjAddr: 0x5960, symBinAddr: 0x100007FE0, symSize: 0x28 }
  - { offsetInCU: 0x530C9, offset: 0x530C9, size: 0x8, addend: 0x0, symName: __ZNSt3__113__rewrap_iterB8ue170006IPK7AstNodeS3_NS_18__unwrap_iter_implIS3_Lb1EEEEET_S6_T0_, symObjAddr: 0x59F8, symBinAddr: 0x100008078, symSize: 0x3C }
  - { offsetInCU: 0x53121, offset: 0x53121, size: 0x8, addend: 0x0, symName: __ZNSt3__13maxB8ue170006ImEERKT_S3_S3_, symObjAddr: 0x5A84, symBinAddr: 0x100008104, symSize: 0x2C }
  - { offsetInCU: 0x53167, offset: 0x53167, size: 0x8, addend: 0x0, symName: __ZNSt3__13maxB8ue170006ImNS_6__lessIvvEEEERKT_S5_S5_T0_, symObjAddr: 0x5AB0, symBinAddr: 0x100008130, symSize: 0x54 }
  - { offsetInCU: 0x531C5, offset: 0x531C5, size: 0x8, addend: 0x0, symName: __ZNSt3__110__distanceB8ue170006IPK7AstNodeEENS_15iterator_traitsIT_E15difference_typeES5_S5_NS_26random_access_iterator_tagE, symObjAddr: 0x5B04, symBinAddr: 0x100008184, symSize: 0x28 }
  - { offsetInCU: 0x53216, offset: 0x53216, size: 0x8, addend: 0x0, symName: __ZNSt3__112__to_addressB8ue170006INS_12basic_stringIcNS_11char_traitsIcEENS_9allocatorIcEEEEEEPT_S8_, symObjAddr: 0x5FF4, symBinAddr: 0x100008674, symSize: 0x14 }
  - { offsetInCU: 0x5324D, offset: 0x5324D, size: 0x8, addend: 0x0, symName: __ZNSt3__119__allocate_at_leastB8ue170006INS_9allocatorINS_12basic_stringIcNS_11char_traitsIcEENS1_IcEEEEEEEENS_19__allocation_resultINS_16allocator_traitsIT_E7pointerEEERSA_m, symObjAddr: 0x6968, symBinAddr: 0x100008FE8, symSize: 0x40 }
  - { offsetInCU: 0x53293, offset: 0x53293, size: 0x8, addend: 0x0, symName: __ZNSt3__142__uninitialized_allocator_move_if_noexceptB8ue170006INS_9allocatorINS_12basic_stringIcNS_11char_traitsIcEENS1_IcEEEEEENS_16reverse_iteratorIPS6_EESA_SA_EET2_RT_T0_T1_SB_, symObjAddr: 0x6B20, symBinAddr: 0x1000091A0, symSize: 0x12C }
  - { offsetInCU: 0x5333A, offset: 0x5333A, size: 0x8, addend: 0x0, symName: __ZNSt3__14swapB8ue170006IPNS_12basic_stringIcNS_11char_traitsIcEENS_9allocatorIcEEEEEENS_9enable_ifIXaasr21is_move_constructibleIT_EE5valuesr18is_move_assignableIS9_EE5valueEvE4typeERS9_SC_, symObjAddr: 0x6C98, symBinAddr: 0x100009318, symSize: 0x3C }
  - { offsetInCU: 0x5338F, offset: 0x5338F, size: 0x8, addend: 0x0, symName: __ZNSt3__122__make_exception_guardB8ue170006INS_29_AllocatorDestroyRangeReverseINS_9allocatorINS_12basic_stringIcNS_11char_traitsIcEENS2_IcEEEEEENS_16reverse_iteratorIPS7_EEEEEENS_28__exception_guard_exceptionsIT_EESE_, symObjAddr: 0x6D9C, symBinAddr: 0x10000941C, symSize: 0x4C }
  - { offsetInCU: 0x533C7, offset: 0x533C7, size: 0x8, addend: 0x0, symName: __ZNSt3__1neB8ue170006IPNS_12basic_stringIcNS_11char_traitsIcEENS_9allocatorIcEEEES7_EEbRKNS_16reverse_iteratorIT_EERKNS8_IT0_EE, symObjAddr: 0x6E2C, symBinAddr: 0x1000094AC, symSize: 0x48 }
  - { offsetInCU: 0x53416, offset: 0x53416, size: 0x8, addend: 0x0, symName: __ZNSt3__112__to_addressB8ue170006INS_16reverse_iteratorIPNS_12basic_stringIcNS_11char_traitsIcEENS_9allocatorIcEEEEEEvEEu7__decayIDTclsr19__to_address_helperIT_EE6__callclsr3stdE7declvalIRKSA_EEEEESC_, symObjAddr: 0x6EA8, symBinAddr: 0x100009528, symSize: 0x24 }
  - { offsetInCU: 0x53478, offset: 0x53478, size: 0x8, addend: 0x0, symName: __ZNSt3__119__allocator_destroyB8ue170006INS_9allocatorINS_12basic_stringIcNS_11char_traitsIcEENS1_IcEEEEEENS_16reverse_iteratorINS8_IPS6_EEEESB_EEvRT_T0_T1_, symObjAddr: 0x7204, symBinAddr: 0x100009884, symSize: 0x70 }
  - { offsetInCU: 0x534E1, offset: 0x534E1, size: 0x8, addend: 0x0, symName: __ZNSt3__1neB8ue170006INS_16reverse_iteratorIPNS_12basic_stringIcNS_11char_traitsIcEENS_9allocatorIcEEEEEES9_EEbRKNS1_IT_EERKNS1_IT0_EE, symObjAddr: 0x72B0, symBinAddr: 0x100009930, symSize: 0x60 }
  - { offsetInCU: 0x53530, offset: 0x53530, size: 0x8, addend: 0x0, symName: __ZNSt3__112__to_addressB8ue170006INS_16reverse_iteratorINS1_IPNS_12basic_stringIcNS_11char_traitsIcEENS_9allocatorIcEEEEEEEEvEEu7__decayIDTclsr19__to_address_helperIT_EE6__callclsr3stdE7declvalIRKSB_EEEEESD_, symObjAddr: 0x7310, symBinAddr: 0x100009990, symSize: 0x24 }
  - { offsetInCU: 0x53592, offset: 0x53592, size: 0x8, addend: 0x0, symName: __ZNSt3__142__uninitialized_allocator_move_if_noexceptB8ue170006INS_9allocatorI7AstNodeEENS_16reverse_iteratorIPS2_EES6_S6_EET2_RT_T0_T1_S7_, symObjAddr: 0x7DE8, symBinAddr: 0x10000A468, symSize: 0x11C }
  - { offsetInCU: 0x53639, offset: 0x53639, size: 0x8, addend: 0x0, symName: __ZNSt3__14swapB8ue170006IP7AstNodeEENS_9enable_ifIXaasr21is_move_constructibleIT_EE5valuesr18is_move_assignableIS4_EE5valueEvE4typeERS4_S7_, symObjAddr: 0x7F04, symBinAddr: 0x10000A584, symSize: 0x3C }
  - { offsetInCU: 0x5368E, offset: 0x5368E, size: 0x8, addend: 0x0, symName: __ZNSt3__122__make_exception_guardB8ue170006INS_29_AllocatorDestroyRangeReverseINS_9allocatorI7AstNodeEENS_16reverse_iteratorIPS3_EEEEEENS_28__exception_guard_exceptionsIT_EESA_, symObjAddr: 0x7F40, symBinAddr: 0x10000A5C0, symSize: 0x4C }
  - { offsetInCU: 0x536C6, offset: 0x536C6, size: 0x8, addend: 0x0, symName: __ZNSt3__119__allocator_destroyB8ue170006INS_9allocatorI7AstNodeEENS_16reverse_iteratorINS4_IPS2_EEEES7_EEvRT_T0_T1_, symObjAddr: 0x81B8, symBinAddr: 0x10000A838, symSize: 0x70 }
  - { offsetInCU: 0x5372F, offset: 0x5372F, size: 0x8, addend: 0x0, symName: __ZNSt3__1neB8ue170006INS_16reverse_iteratorIP7AstNodeEES4_EEbRKNS1_IT_EERKNS1_IT0_EE, symObjAddr: 0x8264, symBinAddr: 0x10000A8E4, symSize: 0x60 }
  - { offsetInCU: 0x5377E, offset: 0x5377E, size: 0x8, addend: 0x0, symName: __ZNSt3__112__to_addressB8ue170006INS_16reverse_iteratorINS1_IP7AstNodeEEEEvEEu7__decayIDTclsr19__to_address_helperIT_EE6__callclsr3stdE7declvalIRKS6_EEEEES8_, symObjAddr: 0x82C4, symBinAddr: 0x10000A944, symSize: 0x24 }
  - { offsetInCU: 0x54588, offset: 0x54588, size: 0x8, addend: 0x0, symName: __ZSt28__throw_bad_array_new_lengthB8ue170006v, symObjAddr: 0x2D70, symBinAddr: 0x1000053F0, symSize: 0x34 }
  - { offsetInCU: 0x58D0E, offset: 0x58D0E, size: 0x8, addend: 0x0, symName: __ZNSt3__16vectorINS_12basic_stringIcNS_11char_traitsIcEENS_9allocatorIcEEEENS4_IS6_EEE26__swap_out_circular_bufferERNS_14__split_bufferIS6_RS7_EE, symObjAddr: 0x65F8, symBinAddr: 0x100008C78, symSize: 0x110 }
  - { offsetInCU: 0x58DA7, offset: 0x58DA7, size: 0x8, addend: 0x0, symName: __ZNSt3__16vectorI7AstNodeNS_9allocatorIS1_EEE26__swap_out_circular_bufferERNS_14__split_bufferIS1_RS3_EE, symObjAddr: 0x7A80, symBinAddr: 0x10000A100, symSize: 0x110 }
  - { offsetInCU: 0x5B117, offset: 0x5B117, size: 0x8, addend: 0x0, symName: __Z13fromAstStringNSt3__112basic_stringIcNS_11char_traitsIcEENS_9allocatorIcEEEE, symObjAddr: 0x0, symBinAddr: 0x100002680, symSize: 0x46C }
  - { offsetInCU: 0x5B195, offset: 0x5B195, size: 0x8, addend: 0x0, symName: __ZNSt3__113basic_ostreamIcNS_11char_traitsIcEEElsB8ue170006EPFRS3_S4_E, symObjAddr: 0x500, symBinAddr: 0x100002B80, symSize: 0x2C }
  - { offsetInCU: 0x5B1CA, offset: 0x5B1CA, size: 0x8, addend: 0x0, symName: __ZNSt3__112basic_stringIcNS_11char_traitsIcEENS_9allocatorIcEEEC1B8ue170006Ev, symObjAddr: 0x584, symBinAddr: 0x100002C04, symSize: 0x2C }
  - { offsetInCU: 0x5B1F4, offset: 0x5B1F4, size: 0x8, addend: 0x0, symName: __ZNKSt3__112basic_stringIcNS_11char_traitsIcEENS_9allocatorIcEEE6substrB8ue170006Emm, symObjAddr: 0x5B0, symBinAddr: 0x100002C30, symSize: 0x68 }
  - { offsetInCU: 0x5B23A, offset: 0x5B23A, size: 0x8, addend: 0x0, symName: __ZNSt3__112basic_stringIcNS_11char_traitsIcEENS_9allocatorIcEEEaSB8ue170006EOS5_, symObjAddr: 0x618, symBinAddr: 0x100002C98, symSize: 0x34 }
  - { offsetInCU: 0x5B270, offset: 0x5B270, size: 0x8, addend: 0x0, symName: __ZNSt3__112basic_stringIcNS_11char_traitsIcEENS_9allocatorIcEEEixB8ue170006Em, symObjAddr: 0x64C, symBinAddr: 0x100002CCC, symSize: 0x30 }
  - { offsetInCU: 0x5B2A6, offset: 0x5B2A6, size: 0x8, addend: 0x0, symName: __ZNKSt3__112basic_stringIcNS_11char_traitsIcEENS_9allocatorIcEEE4sizeB8ue170006Ev, symObjAddr: 0x67C, symBinAddr: 0x100002CFC, symSize: 0x54 }
  - { offsetInCU: 0x5B2CC, offset: 0x5B2CC, size: 0x8, addend: 0x0, symName: __ZNSt3__112basic_stringIcNS_11char_traitsIcEENS_9allocatorIcEEEaSB8ue170006EPKc, symObjAddr: 0x6D0, symBinAddr: 0x100002D50, symSize: 0x2C }
  - { offsetInCU: 0x5B302, offset: 0x5B302, size: 0x8, addend: 0x0, symName: __ZNSt3__16vectorI7AstNodeNS_9allocatorIS1_EEEC1B8ue170006Ev, symObjAddr: 0x7A8, symBinAddr: 0x100002E28, symSize: 0x2C }
  - { offsetInCU: 0x5B32C, offset: 0x5B32C, size: 0x8, addend: 0x0, symName: __Z22parseAstChildrenStringNSt3__112basic_stringIcNS_11char_traitsIcEENS_9allocatorIcEEEE, symObjAddr: 0x7D4, symBinAddr: 0x100002E54, symSize: 0x2F0 }
  - { offsetInCU: 0x5B432, offset: 0x5B432, size: 0x8, addend: 0x0, symName: __ZNSt3__16vectorI7AstNodeNS_9allocatorIS1_EEEaSB8ue170006EOS4_, symObjAddr: 0xAC4, symBinAddr: 0x100003144, symSize: 0x34 }
  - { offsetInCU: 0x5B46A, offset: 0x5B46A, size: 0x8, addend: 0x0, symName: __ZNSt3__16vectorI7AstNodeNS_9allocatorIS1_EEED1B8ue170006Ev, symObjAddr: 0xAF8, symBinAddr: 0x100003178, symSize: 0x2C }
  - { offsetInCU: 0x5B494, offset: 0x5B494, size: 0x8, addend: 0x0, symName: __ZNSt16initializer_listI7AstNodeEC1B8ue170006Ev, symObjAddr: 0xB24, symBinAddr: 0x1000031A4, symSize: 0x2C }
  - { offsetInCU: 0x5B4BE, offset: 0x5B4BE, size: 0x8, addend: 0x0, symName: __ZNSt3__16vectorI7AstNodeNS_9allocatorIS1_EEEaSB8ue170006ESt16initializer_listIS1_E, symObjAddr: 0xB50, symBinAddr: 0x1000031D0, symSize: 0x60 }
  - { offsetInCU: 0x5B4F4, offset: 0x5B4F4, size: 0x8, addend: 0x0, symName: __ZNSt3__16vectorI7AstNodeNS_9allocatorIS1_EEEC1ERKS4_, symObjAddr: 0xBB0, symBinAddr: 0x100003230, symSize: 0x34 }
  - { offsetInCU: 0x5B530, offset: 0x5B530, size: 0x8, addend: 0x0, symName: __ZN7AstNodeC1E11AstNodeTypeNSt3__16vectorIS_NS1_9allocatorIS_EEEE, symObjAddr: 0xBE4, symBinAddr: 0x100003264, symSize: 0x3C }
  - { offsetInCU: 0x5B579, offset: 0x5B579, size: 0x8, addend: 0x0, symName: __ZNSt3__16vectorINS_12basic_stringIcNS_11char_traitsIcEENS_9allocatorIcEEEENS4_IS6_EEEC1B8ue170006Ev, symObjAddr: 0xC20, symBinAddr: 0x1000032A0, symSize: 0x2C }
  - { offsetInCU: 0x5B5A8, offset: 0x5B5A8, size: 0x8, addend: 0x0, symName: __ZNSt3__112basic_stringIcNS_11char_traitsIcEENS_9allocatorIcEEEC1B8ue170006ILi0EEEPKc, symObjAddr: 0xC4C, symBinAddr: 0x1000032CC, symSize: 0x34 }
  - { offsetInCU: 0x5B5E8, offset: 0x5B5E8, size: 0x8, addend: 0x0, symName: __ZNSt3__112basic_stringIcNS_11char_traitsIcEENS_9allocatorIcEEE5beginB8ue170006Ev, symObjAddr: 0xC80, symBinAddr: 0x100003300, symSize: 0x4C }
  - { offsetInCU: 0x5B60E, offset: 0x5B60E, size: 0x8, addend: 0x0, symName: __ZNSt3__112basic_stringIcNS_11char_traitsIcEENS_9allocatorIcEEE3endB8ue170006Ev, symObjAddr: 0xCCC, symBinAddr: 0x10000334C, symSize: 0x54 }
  - { offsetInCU: 0x5B634, offset: 0x5B634, size: 0x8, addend: 0x0, symName: __ZNKSt3__111__wrap_iterIPcEdeB8ue170006Ev, symObjAddr: 0xD54, symBinAddr: 0x1000033D4, symSize: 0x18 }
  - { offsetInCU: 0x5B65A, offset: 0x5B65A, size: 0x8, addend: 0x0, symName: __ZNSt3__16vectorINS_12basic_stringIcNS_11char_traitsIcEENS_9allocatorIcEEEENS4_IS6_EEE9push_backB8ue170006ERKS6_, symObjAddr: 0xD6C, symBinAddr: 0x1000033EC, symSize: 0x6C }
  - { offsetInCU: 0x5B692, offset: 0x5B692, size: 0x8, addend: 0x0, symName: __ZNSt3__112basic_stringIcNS_11char_traitsIcEENS_9allocatorIcEEEpLB8ue170006Ec, symObjAddr: 0xDD8, symBinAddr: 0x100003458, symSize: 0x34 }
  - { offsetInCU: 0x5B6C8, offset: 0x5B6C8, size: 0x8, addend: 0x0, symName: __ZNSt3__111__wrap_iterIPcEppB8ue170006Ev, symObjAddr: 0xE0C, symBinAddr: 0x10000348C, symSize: 0x20 }
  - { offsetInCU: 0x5B6EE, offset: 0x5B6EE, size: 0x8, addend: 0x0, symName: __ZNSt3__16vectorINS_12basic_stringIcNS_11char_traitsIcEENS_9allocatorIcEEEENS4_IS6_EEE5beginB8ue170006Ev, symObjAddr: 0xE2C, symBinAddr: 0x1000034AC, symSize: 0x30 }
  - { offsetInCU: 0x5B716, offset: 0x5B716, size: 0x8, addend: 0x0, symName: __ZNSt3__16vectorINS_12basic_stringIcNS_11char_traitsIcEENS_9allocatorIcEEEENS4_IS6_EEE3endB8ue170006Ev, symObjAddr: 0xE5C, symBinAddr: 0x1000034DC, symSize: 0x30 }
  - { offsetInCU: 0x5B73E, offset: 0x5B73E, size: 0x8, addend: 0x0, symName: __ZNKSt3__111__wrap_iterIPNS_12basic_stringIcNS_11char_traitsIcEENS_9allocatorIcEEEEEdeB8ue170006Ev, symObjAddr: 0xEC0, symBinAddr: 0x100003540, symSize: 0x18 }
  - { offsetInCU: 0x5B764, offset: 0x5B764, size: 0x8, addend: 0x0, symName: __ZNSt3__16vectorI7AstNodeNS_9allocatorIS1_EEE9push_backB8ue170006EOS1_, symObjAddr: 0xED8, symBinAddr: 0x100003558, symSize: 0x6C }
  - { offsetInCU: 0x5B79C, offset: 0x5B79C, size: 0x8, addend: 0x0, symName: __ZN7AstNodeD1Ev, symObjAddr: 0xF44, symBinAddr: 0x1000035C4, symSize: 0x2C }
  - { offsetInCU: 0x5B7C8, offset: 0x5B7C8, size: 0x8, addend: 0x0, symName: __ZNSt3__111__wrap_iterIPNS_12basic_stringIcNS_11char_traitsIcEENS_9allocatorIcEEEEEppB8ue170006Ev, symObjAddr: 0xF70, symBinAddr: 0x1000035F0, symSize: 0x20 }
  - { offsetInCU: 0x5B7EE, offset: 0x5B7EE, size: 0x8, addend: 0x0, symName: __ZNSt3__16vectorINS_12basic_stringIcNS_11char_traitsIcEENS_9allocatorIcEEEENS4_IS6_EEED1B8ue170006Ev, symObjAddr: 0xF90, symBinAddr: 0x100003610, symSize: 0x2C }
  - { offsetInCU: 0x5B818, offset: 0x5B818, size: 0x8, addend: 0x0, symName: __Z10generateIRNSt3__112basic_stringIcNS_11char_traitsIcEENS_9allocatorIcEEEE, symObjAddr: 0xFBC, symBinAddr: 0x10000363C, symSize: 0x20C }
  - { offsetInCU: 0x5B884, offset: 0x5B884, size: 0x8, addend: 0x0, symName: __ZN4llvm9StringRefC1EPKc, symObjAddr: 0x11C8, symBinAddr: 0x100003848, symSize: 0x34 }
  - { offsetInCU: 0x5B8BD, offset: 0x5B8BD, size: 0x8, addend: 0x0, symName: __ZN4llvm8ArrayRefINS_17OperandBundleDefTIPNS_5ValueEEEEC1ENSt3__19nullopt_tE, symObjAddr: 0x11FC, symBinAddr: 0x10000387C, symSize: 0x2C }
  - { offsetInCU: 0x5B8F2, offset: 0x5B8F2, size: 0x8, addend: 0x0, symName: __ZN4llvm9IRBuilderINS_14ConstantFolderENS_24IRBuilderDefaultInserterEEC1ERNS_11LLVMContextEPNS_6MDNodeENS_8ArrayRefINS_17OperandBundleDefTIPNS_5ValueEEEEE, symObjAddr: 0x1228, symBinAddr: 0x1000038A8, symSize: 0x4C }
  - { offsetInCU: 0x5B94C, offset: 0x5B94C, size: 0x8, addend: 0x0, symName: __ZN7AstNode7codegenERN4llvm9IRBuilderINS0_14ConstantFolderENS0_24IRBuilderDefaultInserterEEE, symObjAddr: 0x1274, symBinAddr: 0x1000038F4, symSize: 0xA4 }
  - { offsetInCU: 0x5B981, offset: 0x5B981, size: 0x8, addend: 0x0, symName: __ZN4llvm9IRBuilderINS_14ConstantFolderENS_24IRBuilderDefaultInserterEED1Ev, symObjAddr: 0x1318, symBinAddr: 0x100003998, symSize: 0x2C }
  - { offsetInCU: 0x5B9AE, offset: 0x5B9AE, size: 0x8, addend: 0x0, symName: _main, symObjAddr: 0x1344, symBinAddr: 0x1000039C4, symSize: 0xA0 }
  - { offsetInCU: 0x5B9D8, offset: 0x5B9D8, size: 0x8, addend: 0x0, symName: __ZNSt16initializer_listI7AstNodeEC2B8ue170006Ev, symObjAddr: 0x13E4, symBinAddr: 0x100003A64, symSize: 0x1C }
  - { offsetInCU: 0x5BA02, offset: 0x5BA02, size: 0x8, addend: 0x0, symName: __ZN7AstNodeC2E11AstNodeTypeNSt3__16vectorIS_NS1_9allocatorIS_EEEE, symObjAddr: 0x1400, symBinAddr: 0x100003A80, symSize: 0x4C }
  - { offsetInCU: 0x5BA4B, offset: 0x5BA4B, size: 0x8, addend: 0x0, symName: __ZNKSt3__111__wrap_iterIPcE4baseB8ue170006Ev, symObjAddr: 0x1494, symBinAddr: 0x100003B14, symSize: 0x18 }
  - { offsetInCU: 0x5BA71, offset: 0x5BA71, size: 0x8, addend: 0x0, symName: __ZNKSt3__111__wrap_iterIPNS_12basic_stringIcNS_11char_traitsIcEENS_9allocatorIcEEEEE4baseB8ue170006Ev, symObjAddr: 0x14F4, symBinAddr: 0x100003B74, symSize: 0x18 }
  - { offsetInCU: 0x5BA97, offset: 0x5BA97, size: 0x8, addend: 0x0, symName: __ZN7AstNodeD2Ev, symObjAddr: 0x150C, symBinAddr: 0x100003B8C, symSize: 0x30 }
  - { offsetInCU: 0x5BAC3, offset: 0x5BAC3, size: 0x8, addend: 0x0, symName: __ZN4llvm9StringRefC2EPKc, symObjAddr: 0x153C, symBinAddr: 0x100003BBC, symSize: 0x78 }
  - { offsetInCU: 0x5BAFC, offset: 0x5BAFC, size: 0x8, addend: 0x0, symName: __ZNSt3__111char_traitsIcE6lengthB8ue170006EPKc, symObjAddr: 0x15B4, symBinAddr: 0x100003C34, symSize: 0x34 }
  - { offsetInCU: 0x5BB20, offset: 0x5BB20, size: 0x8, addend: 0x0, symName: __ZN7AstNode12codegen_progERN4llvm9IRBuilderINS0_14ConstantFolderENS0_24IRBuilderDefaultInserterEEE, symObjAddr: 0x1618, symBinAddr: 0x100003C98, symSize: 0xAC }
  - { offsetInCU: 0x5BBA9, offset: 0x5BBA9, size: 0x8, addend: 0x0, symName: __ZN7AstNode12codegen_exprERN4llvm9IRBuilderINS0_14ConstantFolderENS0_24IRBuilderDefaultInserterEEE, symObjAddr: 0x16C4, symBinAddr: 0x100003D44, symSize: 0x158 }
  - { offsetInCU: 0x5BBDE, offset: 0x5BBDE, size: 0x8, addend: 0x0, symName: __ZN7AstNode11codegen_eofERN4llvm9IRBuilderINS0_14ConstantFolderENS0_24IRBuilderDefaultInserterEEE, symObjAddr: 0x181C, symBinAddr: 0x100003E9C, symSize: 0x40 }
  - { offsetInCU: 0x5BC13, offset: 0x5BC13, size: 0x8, addend: 0x0, symName: __ZNSt3__16vectorI7AstNodeNS_9allocatorIS1_EEE5beginB8ue170006Ev, symObjAddr: 0x185C, symBinAddr: 0x100003EDC, symSize: 0x30 }
  - { offsetInCU: 0x5BC3B, offset: 0x5BC3B, size: 0x8, addend: 0x0, symName: __ZNSt3__16vectorI7AstNodeNS_9allocatorIS1_EEE3endB8ue170006Ev, symObjAddr: 0x188C, symBinAddr: 0x100003F0C, symSize: 0x30 }
  - { offsetInCU: 0x5BC63, offset: 0x5BC63, size: 0x8, addend: 0x0, symName: __ZNKSt3__111__wrap_iterIP7AstNodeEdeB8ue170006Ev, symObjAddr: 0x18F0, symBinAddr: 0x100003F70, symSize: 0x18 }
  - { offsetInCU: 0x5BC89, offset: 0x5BC89, size: 0x8, addend: 0x0, symName: __ZNSt3__111__wrap_iterIP7AstNodeEppB8ue170006Ev, symObjAddr: 0x1908, symBinAddr: 0x100003F88, symSize: 0x20 }
  - { offsetInCU: 0x5BCAF, offset: 0x5BCAF, size: 0x8, addend: 0x0, symName: __ZNSt3__16vectorI7AstNodeNS_9allocatorIS1_EEE11__make_iterB8ue170006EPS1_, symObjAddr: 0x1928, symBinAddr: 0x100003FA8, symSize: 0x30 }
  - { offsetInCU: 0x5BCE5, offset: 0x5BCE5, size: 0x8, addend: 0x0, symName: __ZNSt3__111__wrap_iterIP7AstNodeEC1B8ue170006ES2_, symObjAddr: 0x1958, symBinAddr: 0x100003FD8, symSize: 0x34 }
  - { offsetInCU: 0x5BD1E, offset: 0x5BD1E, size: 0x8, addend: 0x0, symName: __ZNSt3__111__wrap_iterIP7AstNodeEC2B8ue170006ES2_, symObjAddr: 0x198C, symBinAddr: 0x10000400C, symSize: 0x20 }
  - { offsetInCU: 0x5BD57, offset: 0x5BD57, size: 0x8, addend: 0x0, symName: __ZNKSt3__111__wrap_iterIP7AstNodeE4baseB8ue170006Ev, symObjAddr: 0x19F4, symBinAddr: 0x100004074, symSize: 0x18 }
  - { offsetInCU: 0x5BD7D, offset: 0x5BD7D, size: 0x8, addend: 0x0, symName: __ZNKSt3__16vectorI7AstNodeNS_9allocatorIS1_EEE4sizeB8ue170006Ev, symObjAddr: 0x1A0C, symBinAddr: 0x10000408C, symSize: 0x28 }
  - { offsetInCU: 0x5BDA3, offset: 0x5BDA3, size: 0x8, addend: 0x0, symName: __ZNSt3__16vectorI7AstNodeNS_9allocatorIS1_EEEixB8ue170006Em, symObjAddr: 0x1A34, symBinAddr: 0x1000040B4, symSize: 0x24 }
  - { offsetInCU: 0x5BDDB, offset: 0x5BDDB, size: 0x8, addend: 0x0, symName: __ZN7AstNode24codegen_expr_calculationERN4llvm9IRBuilderINS0_14ConstantFolderENS0_24IRBuilderDefaultInserterEEE, symObjAddr: 0x1A58, symBinAddr: 0x1000040D8, symSize: 0x40 }
  - { offsetInCU: 0x5BE10, offset: 0x5BE10, size: 0x8, addend: 0x0, symName: __ZN7AstNode23codegen_expr_assignmentERN4llvm9IRBuilderINS0_14ConstantFolderENS0_24IRBuilderDefaultInserterEEE, symObjAddr: 0x1A98, symBinAddr: 0x100004118, symSize: 0x40 }
  - { offsetInCU: 0x5BE45, offset: 0x5BE45, size: 0x8, addend: 0x0, symName: __ZN4llvm9IRBuilderINS_14ConstantFolderENS_24IRBuilderDefaultInserterEED2Ev, symObjAddr: 0x1AD8, symBinAddr: 0x100004158, symSize: 0x44 }
  - { offsetInCU: 0x5BE72, offset: 0x5BE72, size: 0x8, addend: 0x0, symName: __ZN4llvm14ConstantFolderD1Ev, symObjAddr: 0x1B1C, symBinAddr: 0x10000419C, symSize: 0x2C }
  - { offsetInCU: 0x5BE9E, offset: 0x5BE9E, size: 0x8, addend: 0x0, symName: __ZN4llvm13IRBuilderBaseD2Ev, symObjAddr: 0x1B48, symBinAddr: 0x1000041C8, symSize: 0x2C }
  - { offsetInCU: 0x5BECA, offset: 0x5BECA, size: 0x8, addend: 0x0, symName: __ZN4llvm14ConstantFolderD2Ev, symObjAddr: 0x1B74, symBinAddr: 0x1000041F4, symSize: 0x2C }
  - { offsetInCU: 0x5BEF6, offset: 0x5BEF6, size: 0x8, addend: 0x0, symName: __ZN4llvm11SmallVectorINSt3__14pairIjPNS_6MDNodeEEELj2EED1Ev, symObjAddr: 0x1BA0, symBinAddr: 0x100004220, symSize: 0x2C }
  - { offsetInCU: 0x5BF20, offset: 0x5BF20, size: 0x8, addend: 0x0, symName: __ZN4llvm11SmallVectorINSt3__14pairIjPNS_6MDNodeEEELj2EED2Ev, symObjAddr: 0x1BCC, symBinAddr: 0x10000424C, symSize: 0x60 }
  - { offsetInCU: 0x5BF4A, offset: 0x5BF4A, size: 0x8, addend: 0x0, symName: __ZN4llvm23SmallVectorTemplateBaseINSt3__14pairIjPNS_6MDNodeEEELb1EE13destroy_rangeEPS5_S7_, symObjAddr: 0x1C2C, symBinAddr: 0x1000042AC, symSize: 0x14 }
  - { offsetInCU: 0x5BF77, offset: 0x5BF77, size: 0x8, addend: 0x0, symName: __ZN4llvm25SmallVectorTemplateCommonINSt3__14pairIjPNS_6MDNodeEEEvE5beginEv, symObjAddr: 0x1C40, symBinAddr: 0x1000042C0, symSize: 0x18 }
  - { offsetInCU: 0x5BF9D, offset: 0x5BF9D, size: 0x8, addend: 0x0, symName: __ZN4llvm25SmallVectorTemplateCommonINSt3__14pairIjPNS_6MDNodeEEEvE3endEv, symObjAddr: 0x1C58, symBinAddr: 0x1000042D8, symSize: 0x44 }
  - { offsetInCU: 0x5BFC3, offset: 0x5BFC3, size: 0x8, addend: 0x0, symName: __ZN4llvm15SmallVectorImplINSt3__14pairIjPNS_6MDNodeEEEED2Ev, symObjAddr: 0x1C9C, symBinAddr: 0x10000431C, symSize: 0x5C }
  - { offsetInCU: 0x5BFED, offset: 0x5BFED, size: 0x8, addend: 0x0, symName: __ZNK4llvm25SmallVectorTemplateCommonINSt3__14pairIjPNS_6MDNodeEEEvE7isSmallEv, symObjAddr: 0x1CF8, symBinAddr: 0x100004378, symSize: 0x3C }
  - { offsetInCU: 0x5C013, offset: 0x5C013, size: 0x8, addend: 0x0, symName: __ZNK4llvm25SmallVectorTemplateCommonINSt3__14pairIjPNS_6MDNodeEEEvE10getFirstElEv, symObjAddr: 0x1D34, symBinAddr: 0x1000043B4, symSize: 0x18 }
  - { offsetInCU: 0x5C039, offset: 0x5C039, size: 0x8, addend: 0x0, symName: __ZNSt3__112basic_stringIcNS_11char_traitsIcEENS_9allocatorIcEEEC2B8ue170006Ev, symObjAddr: 0x1D4C, symBinAddr: 0x1000043CC, symSize: 0x48 }
  - { offsetInCU: 0x5C069, offset: 0x5C069, size: 0x8, addend: 0x0, symName: __ZNSt3__117__compressed_pairINS_12basic_stringIcNS_11char_traitsIcEENS_9allocatorIcEEE5__repES5_EC1B8ue170006INS_18__default_init_tagESA_EEOT_OT0_, symObjAddr: 0x1D94, symBinAddr: 0x100004414, symSize: 0x3C }
  - { offsetInCU: 0x5C0C3, offset: 0x5C0C3, size: 0x8, addend: 0x0, symName: __ZNSt3__112basic_stringIcNS_11char_traitsIcEENS_9allocatorIcEEE14__default_initB8ue170006Ev, symObjAddr: 0x1DD0, symBinAddr: 0x100004450, symSize: 0x40 }
  - { offsetInCU: 0x5C0E9, offset: 0x5C0E9, size: 0x8, addend: 0x0, symName: __ZNSt3__117__compressed_pairINS_12basic_stringIcNS_11char_traitsIcEENS_9allocatorIcEEE5__repES5_EC2B8ue170006INS_18__default_init_tagESA_EEOT_OT0_, symObjAddr: 0x1E10, symBinAddr: 0x100004490, symSize: 0x3C }
  - { offsetInCU: 0x5C143, offset: 0x5C143, size: 0x8, addend: 0x0, symName: __ZNSt3__122__compressed_pair_elemINS_12basic_stringIcNS_11char_traitsIcEENS_9allocatorIcEEE5__repELi0ELb0EEC2B8ue170006ENS_18__default_init_tagE, symObjAddr: 0x1E4C, symBinAddr: 0x1000044CC, symSize: 0x14 }
  - { offsetInCU: 0x5C178, offset: 0x5C178, size: 0x8, addend: 0x0, symName: __ZNSt3__122__compressed_pair_elemINS_9allocatorIcEELi1ELb1EEC2B8ue170006ENS_18__default_init_tagE, symObjAddr: 0x1E60, symBinAddr: 0x1000044E0, symSize: 0x2C }
  - { offsetInCU: 0x5C1AD, offset: 0x5C1AD, size: 0x8, addend: 0x0, symName: __ZNSt3__19allocatorIcEC2B8ue170006Ev, symObjAddr: 0x1E8C, symBinAddr: 0x10000450C, symSize: 0x2C }
  - { offsetInCU: 0x5C1D7, offset: 0x5C1D7, size: 0x8, addend: 0x0, symName: __ZNSt3__116__non_trivial_ifILb1ENS_9allocatorIcEEEC2B8ue170006Ev, symObjAddr: 0x1EB8, symBinAddr: 0x100004538, symSize: 0x14 }
  - { offsetInCU: 0x5C201, offset: 0x5C201, size: 0x8, addend: 0x0, symName: __ZNSt3__117__compressed_pairINS_12basic_stringIcNS_11char_traitsIcEENS_9allocatorIcEEE5__repES5_E5firstB8ue170006Ev, symObjAddr: 0x1ECC, symBinAddr: 0x10000454C, symSize: 0x24 }
  - { offsetInCU: 0x5C227, offset: 0x5C227, size: 0x8, addend: 0x0, symName: __ZNSt3__122__compressed_pair_elemINS_12basic_stringIcNS_11char_traitsIcEENS_9allocatorIcEEE5__repELi0ELb0EE5__getB8ue170006Ev, symObjAddr: 0x1EF0, symBinAddr: 0x100004570, symSize: 0x14 }
  - { offsetInCU: 0x5C24D, offset: 0x5C24D, size: 0x8, addend: 0x0, symName: __ZNSt3__112basic_stringIcNS_11char_traitsIcEENS_9allocatorIcEEEC2B8ue170006ILi0EEEPKc, symObjAddr: 0x1F04, symBinAddr: 0x100004584, symSize: 0x58 }
  - { offsetInCU: 0x5C28D, offset: 0x5C28D, size: 0x8, addend: 0x0, symName: __ZNKSt3__112basic_stringIcNS_11char_traitsIcEENS_9allocatorIcEEE9__is_longB8ue170006Ev, symObjAddr: 0x1F5C, symBinAddr: 0x1000045DC, symSize: 0x38 }
  - { offsetInCU: 0x5C2B3, offset: 0x5C2B3, size: 0x8, addend: 0x0, symName: __ZNKSt3__112basic_stringIcNS_11char_traitsIcEENS_9allocatorIcEEE15__get_long_sizeB8ue170006Ev, symObjAddr: 0x1F94, symBinAddr: 0x100004614, symSize: 0x28 }
  - { offsetInCU: 0x5C2D9, offset: 0x5C2D9, size: 0x8, addend: 0x0, symName: __ZNKSt3__112basic_stringIcNS_11char_traitsIcEENS_9allocatorIcEEE16__get_short_sizeB8ue170006Ev, symObjAddr: 0x1FBC, symBinAddr: 0x10000463C, symSize: 0x34 }
  - { offsetInCU: 0x5C2FF, offset: 0x5C2FF, size: 0x8, addend: 0x0, symName: __ZNKSt3__117__compressed_pairINS_12basic_stringIcNS_11char_traitsIcEENS_9allocatorIcEEE5__repES5_E5firstB8ue170006Ev, symObjAddr: 0x1FF0, symBinAddr: 0x100004670, symSize: 0x24 }
  - { offsetInCU: 0x5C325, offset: 0x5C325, size: 0x8, addend: 0x0, symName: __ZNKSt3__122__compressed_pair_elemINS_12basic_stringIcNS_11char_traitsIcEENS_9allocatorIcEEE5__repELi0ELb0EE5__getB8ue170006Ev, symObjAddr: 0x2014, symBinAddr: 0x100004694, symSize: 0x14 }
  - { offsetInCU: 0x5C34B, offset: 0x5C34B, size: 0x8, addend: 0x0, symName: __ZN4llvm8ArrayRefINS_17OperandBundleDefTIPNS_5ValueEEEEC2ENSt3__19nullopt_tE, symObjAddr: 0x2028, symBinAddr: 0x1000046A8, symSize: 0x1C }
  - { offsetInCU: 0x5C380, offset: 0x5C380, size: 0x8, addend: 0x0, symName: __ZNSt3__112basic_stringIcNS_11char_traitsIcEENS_9allocatorIcEEE13__move_assignB8ue170006ERS5_NS_17integral_constantIbLb1EEE, symObjAddr: 0x2044, symBinAddr: 0x1000046C4, symSize: 0xC8 }
  - { offsetInCU: 0x5C3C4, offset: 0x5C3C4, size: 0x8, addend: 0x0, symName: __ZNSt3__116allocator_traitsINS_9allocatorIcEEE10deallocateB8ue170006ERS2_Pcm, symObjAddr: 0x210C, symBinAddr: 0x10000478C, symSize: 0x34 }
  - { offsetInCU: 0x5C409, offset: 0x5C409, size: 0x8, addend: 0x0, symName: __ZNSt3__112basic_stringIcNS_11char_traitsIcEENS_9allocatorIcEEE7__allocB8ue170006Ev, symObjAddr: 0x2140, symBinAddr: 0x1000047C0, symSize: 0x24 }
  - { offsetInCU: 0x5C42F, offset: 0x5C42F, size: 0x8, addend: 0x0, symName: __ZNSt3__112basic_stringIcNS_11char_traitsIcEENS_9allocatorIcEEE18__get_long_pointerB8ue170006Ev, symObjAddr: 0x2164, symBinAddr: 0x1000047E4, symSize: 0x28 }
  - { offsetInCU: 0x5C455, offset: 0x5C455, size: 0x8, addend: 0x0, symName: __ZNKSt3__112basic_stringIcNS_11char_traitsIcEENS_9allocatorIcEEE14__get_long_capB8ue170006Ev, symObjAddr: 0x218C, symBinAddr: 0x10000480C, symSize: 0x30 }
  - { offsetInCU: 0x5C47B, offset: 0x5C47B, size: 0x8, addend: 0x0, symName: __ZNSt3__112basic_stringIcNS_11char_traitsIcEENS_9allocatorIcEEE19__move_assign_allocB8ue170006ERS5_, symObjAddr: 0x21BC, symBinAddr: 0x10000483C, symSize: 0x2C }
  - { offsetInCU: 0x5C4B1, offset: 0x5C4B1, size: 0x8, addend: 0x0, symName: __ZNSt3__112basic_stringIcNS_11char_traitsIcEENS_9allocatorIcEEE16__set_short_sizeB8ue170006Em, symObjAddr: 0x21E8, symBinAddr: 0x100004868, symSize: 0x78 }
  - { offsetInCU: 0x5C4E7, offset: 0x5C4E7, size: 0x8, addend: 0x0, symName: __ZNSt3__111char_traitsIcE6assignB8ue170006ERcRKc, symObjAddr: 0x2260, symBinAddr: 0x1000048E0, symSize: 0x24 }
  - { offsetInCU: 0x5C51A, offset: 0x5C51A, size: 0x8, addend: 0x0, symName: __ZNSt3__112basic_stringIcNS_11char_traitsIcEENS_9allocatorIcEEE19__get_short_pointerB8ue170006Ev, symObjAddr: 0x2284, symBinAddr: 0x100004904, symSize: 0x28 }
  - { offsetInCU: 0x5C540, offset: 0x5C540, size: 0x8, addend: 0x0, symName: __ZNSt3__19allocatorIcE10deallocateB8ue170006EPcm, symObjAddr: 0x22AC, symBinAddr: 0x10000492C, symSize: 0x40 }
  - { offsetInCU: 0x5C584, offset: 0x5C584, size: 0x8, addend: 0x0, symName: __ZNSt3__117__compressed_pairINS_12basic_stringIcNS_11char_traitsIcEENS_9allocatorIcEEE5__repES5_E6secondB8ue170006Ev, symObjAddr: 0x2414, symBinAddr: 0x100004A94, symSize: 0x24 }
  - { offsetInCU: 0x5C5AA, offset: 0x5C5AA, size: 0x8, addend: 0x0, symName: __ZNSt3__122__compressed_pair_elemINS_9allocatorIcEELi1ELb1EE5__getB8ue170006Ev, symObjAddr: 0x2438, symBinAddr: 0x100004AB8, symSize: 0x14 }
  - { offsetInCU: 0x5C5D0, offset: 0x5C5D0, size: 0x8, addend: 0x0, symName: __ZNSt3__112basic_stringIcNS_11char_traitsIcEENS_9allocatorIcEEE19__move_assign_allocB8ue170006ERS5_NS_17integral_constantIbLb1EEE, symObjAddr: 0x244C, symBinAddr: 0x100004ACC, symSize: 0x38 }
  - { offsetInCU: 0x5C612, offset: 0x5C612, size: 0x8, addend: 0x0, symName: __ZNSt3__114pointer_traitsIPcE10pointer_toB8ue170006ERc, symObjAddr: 0x2484, symBinAddr: 0x100004B04, symSize: 0x14 }
  - { offsetInCU: 0x5C636, offset: 0x5C636, size: 0x8, addend: 0x0, symName: __ZNSt3__16vectorI7AstNodeNS_9allocatorIS1_EEEC2ERKS4_, symObjAddr: 0x2498, symBinAddr: 0x100004B18, symSize: 0x94 }
  - { offsetInCU: 0x5C67D, offset: 0x5C67D, size: 0x8, addend: 0x0, symName: __ZNSt3__116allocator_traitsINS_9allocatorI7AstNodeEEE37select_on_container_copy_constructionB8ue170006IS3_vvEES3_RKS3_, symObjAddr: 0x252C, symBinAddr: 0x100004BAC, symSize: 0x10 }
  - { offsetInCU: 0x5C6AF, offset: 0x5C6AF, size: 0x8, addend: 0x0, symName: __ZNKSt3__16vectorI7AstNodeNS_9allocatorIS1_EEE7__allocB8ue170006Ev, symObjAddr: 0x253C, symBinAddr: 0x100004BBC, symSize: 0x28 }
  - { offsetInCU: 0x5C6E1, offset: 0x5C6E1, size: 0x8, addend: 0x0, symName: __ZNSt3__117__compressed_pairIP7AstNodeNS_9allocatorIS1_EEEC1B8ue170006IDnS4_EEOT_OT0_, symObjAddr: 0x2564, symBinAddr: 0x100004BE4, symSize: 0x3C }
  - { offsetInCU: 0x5C73B, offset: 0x5C73B, size: 0x8, addend: 0x0, symName: __ZNSt3__16vectorI7AstNodeNS_9allocatorIS1_EEE16__init_with_sizeB8ue170006IPS1_S6_EEvT_T0_m, symObjAddr: 0x25A0, symBinAddr: 0x100004C20, symSize: 0xB8 }
  - { offsetInCU: 0x5C7B3, offset: 0x5C7B3, size: 0x8, addend: 0x0, symName: __ZNKSt3__117__compressed_pairIP7AstNodeNS_9allocatorIS1_EEE6secondB8ue170006Ev, symObjAddr: 0x2658, symBinAddr: 0x100004CD8, symSize: 0x24 }
  - { offsetInCU: 0x5C7D9, offset: 0x5C7D9, size: 0x8, addend: 0x0, symName: __ZNKSt3__122__compressed_pair_elemINS_9allocatorI7AstNodeEELi1ELb1EE5__getB8ue170006Ev, symObjAddr: 0x267C, symBinAddr: 0x100004CFC, symSize: 0x14 }
  - { offsetInCU: 0x5C7FF, offset: 0x5C7FF, size: 0x8, addend: 0x0, symName: __ZNSt3__117__compressed_pairIP7AstNodeNS_9allocatorIS1_EEEC2B8ue170006IDnS4_EEOT_OT0_, symObjAddr: 0x2690, symBinAddr: 0x100004D10, symSize: 0x44 }
  - { offsetInCU: 0x5C859, offset: 0x5C859, size: 0x8, addend: 0x0, symName: __ZNSt3__122__compressed_pair_elemIP7AstNodeLi0ELb0EEC2B8ue170006IDnvEEOT_, symObjAddr: 0x26D4, symBinAddr: 0x100004D54, symSize: 0x1C }
  - { offsetInCU: 0x5C89D, offset: 0x5C89D, size: 0x8, addend: 0x0, symName: __ZNSt3__122__compressed_pair_elemINS_9allocatorI7AstNodeEELi1ELb1EEC2B8ue170006IS3_vEEOT_, symObjAddr: 0x26F0, symBinAddr: 0x100004D70, symSize: 0x18 }
  - { offsetInCU: 0x5C8E1, offset: 0x5C8E1, size: 0x8, addend: 0x0, symName: __ZNSt3__16vectorI7AstNodeNS_9allocatorIS1_EEE16__destroy_vectorC1B8ue170006ERS4_, symObjAddr: 0x2748, symBinAddr: 0x100004DC8, symSize: 0x34 }
  - { offsetInCU: 0x5C91B, offset: 0x5C91B, size: 0x8, addend: 0x0, symName: __ZNSt3__16vectorI7AstNodeNS_9allocatorIS1_EEE11__vallocateB8ue170006Em, symObjAddr: 0x277C, symBinAddr: 0x100004DFC, symSize: 0xAC }
  - { offsetInCU: 0x5C961, offset: 0x5C961, size: 0x8, addend: 0x0, symName: __ZNSt3__16vectorI7AstNodeNS_9allocatorIS1_EEE18__construct_at_endIPS1_S6_EEvT_T0_m, symObjAddr: 0x2828, symBinAddr: 0x100004EA8, symSize: 0x8C }
  - { offsetInCU: 0x5C9DB, offset: 0x5C9DB, size: 0x8, addend: 0x0, symName: __ZNSt3__128__exception_guard_exceptionsINS_6vectorI7AstNodeNS_9allocatorIS2_EEE16__destroy_vectorEE10__completeB8ue170006Ev, symObjAddr: 0x28B4, symBinAddr: 0x100004F34, symSize: 0x1C }
  - { offsetInCU: 0x5CA01, offset: 0x5CA01, size: 0x8, addend: 0x0, symName: __ZNSt3__128__exception_guard_exceptionsINS_6vectorI7AstNodeNS_9allocatorIS2_EEE16__destroy_vectorEED1B8ue170006Ev, symObjAddr: 0x28D0, symBinAddr: 0x100004F50, symSize: 0x2C }
  - { offsetInCU: 0x5CA2B, offset: 0x5CA2B, size: 0x8, addend: 0x0, symName: __ZNSt3__128__exception_guard_exceptionsINS_6vectorI7AstNodeNS_9allocatorIS2_EEE16__destroy_vectorEEC1B8ue170006ES6_, symObjAddr: 0x28FC, symBinAddr: 0x100004F7C, symSize: 0x34 }
  - { offsetInCU: 0x5CA64, offset: 0x5CA64, size: 0x8, addend: 0x0, symName: __ZNSt3__128__exception_guard_exceptionsINS_6vectorI7AstNodeNS_9allocatorIS2_EEE16__destroy_vectorEEC2B8ue170006ES6_, symObjAddr: 0x2930, symBinAddr: 0x100004FB0, symSize: 0x24 }
  - { offsetInCU: 0x5CA9D, offset: 0x5CA9D, size: 0x8, addend: 0x0, symName: __ZNSt3__16vectorI7AstNodeNS_9allocatorIS1_EEE16__destroy_vectorC2B8ue170006ERS4_, symObjAddr: 0x2954, symBinAddr: 0x100004FD4, symSize: 0x20 }
  - { offsetInCU: 0x5CAD7, offset: 0x5CAD7, size: 0x8, addend: 0x0, symName: __ZNKSt3__16vectorI7AstNodeNS_9allocatorIS1_EEE8max_sizeEv, symObjAddr: 0x2974, symBinAddr: 0x100004FF4, symSize: 0x60 }
  - { offsetInCU: 0x5CAFF, offset: 0x5CAFF, size: 0x8, addend: 0x0, symName: __ZNKSt3__16vectorI7AstNodeNS_9allocatorIS1_EEE20__throw_length_errorB8ue170006Ev, symObjAddr: 0x29D4, symBinAddr: 0x100005054, symSize: 0x1C }
  - { offsetInCU: 0x5CB25, offset: 0x5CB25, size: 0x8, addend: 0x0, symName: __ZNSt3__16vectorI7AstNodeNS_9allocatorIS1_EEE7__allocB8ue170006Ev, symObjAddr: 0x2A30, symBinAddr: 0x1000050B0, symSize: 0x28 }
  - { offsetInCU: 0x5CB4B, offset: 0x5CB4B, size: 0x8, addend: 0x0, symName: __ZNSt3__16vectorI7AstNodeNS_9allocatorIS1_EEE9__end_capB8ue170006Ev, symObjAddr: 0x2A58, symBinAddr: 0x1000050D8, symSize: 0x28 }
  - { offsetInCU: 0x5CB71, offset: 0x5CB71, size: 0x8, addend: 0x0, symName: __ZNKSt3__16vectorI7AstNodeNS_9allocatorIS1_EEE14__annotate_newB8ue170006Em, symObjAddr: 0x2A80, symBinAddr: 0x100005100, symSize: 0xAC }
  - { offsetInCU: 0x5CBA7, offset: 0x5CBA7, size: 0x8, addend: 0x0, symName: __ZNSt3__116allocator_traitsINS_9allocatorI7AstNodeEEE8max_sizeB8ue170006IS3_vEEmRKS3_, symObjAddr: 0x2B58, symBinAddr: 0x1000051D8, symSize: 0x24 }
  - { offsetInCU: 0x5CBD7, offset: 0x5CBD7, size: 0x8, addend: 0x0, symName: __ZNSt3__114numeric_limitsIlE3maxB8ue170006Ev, symObjAddr: 0x2B7C, symBinAddr: 0x1000051FC, symSize: 0x14 }
  - { offsetInCU: 0x5CBF5, offset: 0x5CBF5, size: 0x8, addend: 0x0, symName: __ZNKSt3__16__lessIvvEclB8ue170006ImmEEbRKT_RKT0_, symObjAddr: 0x2BE4, symBinAddr: 0x100005264, symSize: 0x34 }
  - { offsetInCU: 0x5CC4B, offset: 0x5CC4B, size: 0x8, addend: 0x0, symName: __ZNKSt3__19allocatorI7AstNodeE8max_sizeB8ue170006Ev, symObjAddr: 0x2C18, symBinAddr: 0x100005298, symSize: 0x14 }
  - { offsetInCU: 0x5CC71, offset: 0x5CC71, size: 0x8, addend: 0x0, symName: __ZNSt3__123__libcpp_numeric_limitsIlLb1EE3maxB8ue170006Ev, symObjAddr: 0x2C2C, symBinAddr: 0x1000052AC, symSize: 0x8 }
  - { offsetInCU: 0x5CC85, offset: 0x5CC85, size: 0x8, addend: 0x0, symName: __ZNSt12length_errorC1B8ue170006EPKc, symObjAddr: 0x2C98, symBinAddr: 0x100005318, symSize: 0x34 }
  - { offsetInCU: 0x5CCBE, offset: 0x5CCBE, size: 0x8, addend: 0x0, symName: __ZNSt12length_errorC2B8ue170006EPKc, symObjAddr: 0x2CCC, symBinAddr: 0x10000534C, symSize: 0x4C }
  - { offsetInCU: 0x5CCF7, offset: 0x5CCF7, size: 0x8, addend: 0x0, symName: __ZNSt3__19allocatorI7AstNodeE8allocateB8ue170006Em, symObjAddr: 0x2D18, symBinAddr: 0x100005398, symSize: 0x58 }
  - { offsetInCU: 0x5CD2C, offset: 0x5CD2C, size: 0x8, addend: 0x0, symName: __ZNSt3__117__compressed_pairIP7AstNodeNS_9allocatorIS1_EEE6secondB8ue170006Ev, symObjAddr: 0x2E54, symBinAddr: 0x1000054D4, symSize: 0x24 }
  - { offsetInCU: 0x5CD52, offset: 0x5CD52, size: 0x8, addend: 0x0, symName: __ZNSt3__122__compressed_pair_elemINS_9allocatorI7AstNodeEELi1ELb1EE5__getB8ue170006Ev, symObjAddr: 0x2E78, symBinAddr: 0x1000054F8, symSize: 0x14 }
  - { offsetInCU: 0x5CD78, offset: 0x5CD78, size: 0x8, addend: 0x0, symName: __ZNSt3__117__compressed_pairIP7AstNodeNS_9allocatorIS1_EEE5firstB8ue170006Ev, symObjAddr: 0x2E8C, symBinAddr: 0x10000550C, symSize: 0x24 }
  - { offsetInCU: 0x5CD9E, offset: 0x5CD9E, size: 0x8, addend: 0x0, symName: __ZNSt3__122__compressed_pair_elemIP7AstNodeLi0ELb0EE5__getB8ue170006Ev, symObjAddr: 0x2EB0, symBinAddr: 0x100005530, symSize: 0x14 }
  - { offsetInCU: 0x5CDC4, offset: 0x5CDC4, size: 0x8, addend: 0x0, symName: __ZNKSt3__16vectorI7AstNodeNS_9allocatorIS1_EEE31__annotate_contiguous_containerB8ue170006EPKvS6_S6_S6_, symObjAddr: 0x2EC4, symBinAddr: 0x100005544, symSize: 0x20 }
  - { offsetInCU: 0x5CE1A, offset: 0x5CE1A, size: 0x8, addend: 0x0, symName: __ZNKSt3__16vectorI7AstNodeNS_9allocatorIS1_EEE4dataB8ue170006Ev, symObjAddr: 0x2EE4, symBinAddr: 0x100005564, symSize: 0x28 }
  - { offsetInCU: 0x5CE40, offset: 0x5CE40, size: 0x8, addend: 0x0, symName: __ZNKSt3__16vectorI7AstNodeNS_9allocatorIS1_EEE8capacityB8ue170006Ev, symObjAddr: 0x2F0C, symBinAddr: 0x10000558C, symSize: 0x40 }
  - { offsetInCU: 0x5CE66, offset: 0x5CE66, size: 0x8, addend: 0x0, symName: __ZNKSt3__16vectorI7AstNodeNS_9allocatorIS1_EEE9__end_capB8ue170006Ev, symObjAddr: 0x2F60, symBinAddr: 0x1000055E0, symSize: 0x28 }
  - { offsetInCU: 0x5CE8C, offset: 0x5CE8C, size: 0x8, addend: 0x0, symName: __ZNKSt3__117__compressed_pairIP7AstNodeNS_9allocatorIS1_EEE5firstB8ue170006Ev, symObjAddr: 0x2F88, symBinAddr: 0x100005608, symSize: 0x24 }
  - { offsetInCU: 0x5CEB2, offset: 0x5CEB2, size: 0x8, addend: 0x0, symName: __ZNKSt3__122__compressed_pair_elemIP7AstNodeLi0ELb0EE5__getB8ue170006Ev, symObjAddr: 0x2FAC, symBinAddr: 0x10000562C, symSize: 0x14 }
  - { offsetInCU: 0x5CEF3, offset: 0x5CEF3, size: 0x8, addend: 0x0, symName: __ZNSt3__16vectorI7AstNodeNS_9allocatorIS1_EEE21_ConstructTransactionC1B8ue170006ERS4_m, symObjAddr: 0x2FC0, symBinAddr: 0x100005640, symSize: 0x3C }
  - { offsetInCU: 0x5CF3D, offset: 0x5CF3D, size: 0x8, addend: 0x0, symName: __ZNSt3__16vectorI7AstNodeNS_9allocatorIS1_EEE21_ConstructTransactionD1B8ue170006Ev, symObjAddr: 0x307C, symBinAddr: 0x1000056FC, symSize: 0x2C }
  - { offsetInCU: 0x5CF67, offset: 0x5CF67, size: 0x8, addend: 0x0, symName: __ZNSt3__16vectorI7AstNodeNS_9allocatorIS1_EEE21_ConstructTransactionC2B8ue170006ERS4_m, symObjAddr: 0x30A8, symBinAddr: 0x100005728, symSize: 0x44 }
  - { offsetInCU: 0x5CFD3, offset: 0x5CFD3, size: 0x8, addend: 0x0, symName: __ZNSt3__14pairIP7AstNodeS2_EC1B8ue170006IS2_S2_LPv0EEEOT_OT0_, symObjAddr: 0x32D8, symBinAddr: 0x100005958, symSize: 0x3C }
  - { offsetInCU: 0x5D034, offset: 0x5D034, size: 0x8, addend: 0x0, symName: __ZNSt3__14pairIP7AstNodeS2_EC2B8ue170006IS2_S2_LPv0EEEOT_OT0_, symObjAddr: 0x3314, symBinAddr: 0x100005994, symSize: 0x34 }
  - { offsetInCU: 0x5D095, offset: 0x5D095, size: 0x8, addend: 0x0, symName: __ZNSt3__129_AllocatorDestroyRangeReverseINS_9allocatorI7AstNodeEEPS2_EC1B8ue170006ERS3_RS4_S7_, symObjAddr: 0x3394, symBinAddr: 0x100005A14, symSize: 0x44 }
  - { offsetInCU: 0x5D0EF, offset: 0x5D0EF, size: 0x8, addend: 0x0, symName: __ZNSt3__116allocator_traitsINS_9allocatorI7AstNodeEEE9constructB8ue170006IS2_JRS2_EvEEvRS3_PT_DpOT0_, symObjAddr: 0x33D8, symBinAddr: 0x100005A58, symSize: 0x34 }
  - { offsetInCU: 0x5D14A, offset: 0x5D14A, size: 0x8, addend: 0x0, symName: __ZNSt3__128__exception_guard_exceptionsINS_29_AllocatorDestroyRangeReverseINS_9allocatorI7AstNodeEEPS3_EEE10__completeB8ue170006Ev, symObjAddr: 0x340C, symBinAddr: 0x100005A8C, symSize: 0x1C }
  - { offsetInCU: 0x5D170, offset: 0x5D170, size: 0x8, addend: 0x0, symName: __ZNSt3__128__exception_guard_exceptionsINS_29_AllocatorDestroyRangeReverseINS_9allocatorI7AstNodeEEPS3_EEED1B8ue170006Ev, symObjAddr: 0x3428, symBinAddr: 0x100005AA8, symSize: 0x2C }
  - { offsetInCU: 0x5D19A, offset: 0x5D19A, size: 0x8, addend: 0x0, symName: __ZNSt3__128__exception_guard_exceptionsINS_29_AllocatorDestroyRangeReverseINS_9allocatorI7AstNodeEEPS3_EEEC1B8ue170006ES6_, symObjAddr: 0x3454, symBinAddr: 0x100005AD4, symSize: 0x34 }
  - { offsetInCU: 0x5D1D4, offset: 0x5D1D4, size: 0x8, addend: 0x0, symName: __ZNSt3__128__exception_guard_exceptionsINS_29_AllocatorDestroyRangeReverseINS_9allocatorI7AstNodeEEPS3_EEEC2B8ue170006ES6_, symObjAddr: 0x3488, symBinAddr: 0x100005B08, symSize: 0x30 }
  - { offsetInCU: 0x5D20E, offset: 0x5D20E, size: 0x8, addend: 0x0, symName: __ZNSt3__129_AllocatorDestroyRangeReverseINS_9allocatorI7AstNodeEEPS2_EC2B8ue170006ERS3_RS4_S7_, symObjAddr: 0x34B8, symBinAddr: 0x100005B38, symSize: 0x38 }
  - { offsetInCU: 0x5D268, offset: 0x5D268, size: 0x8, addend: 0x0, symName: __ZNSt3__19allocatorI7AstNodeE9constructB8ue170006IS1_JRS1_EEEvPT_DpOT0_, symObjAddr: 0x34F0, symBinAddr: 0x100005B70, symSize: 0x30 }
  - { offsetInCU: 0x5D2C0, offset: 0x5D2C0, size: 0x8, addend: 0x0, symName: __ZN7AstNodeC1ERKS_, symObjAddr: 0x3520, symBinAddr: 0x100005BA0, symSize: 0x34 }
  - { offsetInCU: 0x5D2F5, offset: 0x5D2F5, size: 0x8, addend: 0x0, symName: __ZN7AstNodeC2ERKS_, symObjAddr: 0x3554, symBinAddr: 0x100005BD4, symSize: 0x48 }
  - { offsetInCU: 0x5D32A, offset: 0x5D32A, size: 0x8, addend: 0x0, symName: __ZNSt3__128__exception_guard_exceptionsINS_29_AllocatorDestroyRangeReverseINS_9allocatorI7AstNodeEEPS3_EEED2B8ue170006Ev, symObjAddr: 0x359C, symBinAddr: 0x100005C1C, symSize: 0x50 }
  - { offsetInCU: 0x5D354, offset: 0x5D354, size: 0x8, addend: 0x0, symName: __ZNKSt3__129_AllocatorDestroyRangeReverseINS_9allocatorI7AstNodeEEPS2_EclB8ue170006Ev, symObjAddr: 0x35EC, symBinAddr: 0x100005C6C, symSize: 0x68 }
  - { offsetInCU: 0x5D37A, offset: 0x5D37A, size: 0x8, addend: 0x0, symName: __ZNSt3__116reverse_iteratorIP7AstNodeEC1B8ue170006ES2_, symObjAddr: 0x36C4, symBinAddr: 0x100005D44, symSize: 0x34 }
  - { offsetInCU: 0x5D3B3, offset: 0x5D3B3, size: 0x8, addend: 0x0, symName: __ZNSt3__116allocator_traitsINS_9allocatorI7AstNodeEEE7destroyB8ue170006IS2_vEEvRS3_PT_, symObjAddr: 0x3740, symBinAddr: 0x100005DC0, symSize: 0x2C }
  - { offsetInCU: 0x5D3F3, offset: 0x5D3F3, size: 0x8, addend: 0x0, symName: __ZNSt3__116reverse_iteratorIP7AstNodeEppB8ue170006Ev, symObjAddr: 0x3790, symBinAddr: 0x100005E10, symSize: 0x20 }
  - { offsetInCU: 0x5D419, offset: 0x5D419, size: 0x8, addend: 0x0, symName: __ZNKSt3__116reverse_iteratorIP7AstNodeE4baseB8ue170006Ev, symObjAddr: 0x37B0, symBinAddr: 0x100005E30, symSize: 0x18 }
  - { offsetInCU: 0x5D43F, offset: 0x5D43F, size: 0x8, addend: 0x0, symName: __ZNSt3__19allocatorI7AstNodeE7destroyB8ue170006EPS1_, symObjAddr: 0x37C8, symBinAddr: 0x100005E48, symSize: 0x28 }
  - { offsetInCU: 0x5D47A, offset: 0x5D47A, size: 0x8, addend: 0x0, symName: __ZNSt3__119__to_address_helperINS_16reverse_iteratorIP7AstNodeEEvE6__callB8ue170006ERKS4_, symObjAddr: 0x37F0, symBinAddr: 0x100005E70, symSize: 0x38 }
  - { offsetInCU: 0x5D49E, offset: 0x5D49E, size: 0x8, addend: 0x0, symName: __ZNKSt3__116reverse_iteratorIP7AstNodeEptB8ue170006Ev, symObjAddr: 0x3828, symBinAddr: 0x100005EA8, symSize: 0x24 }
  - { offsetInCU: 0x5D4C4, offset: 0x5D4C4, size: 0x8, addend: 0x0, symName: __ZNKSt3__116reverse_iteratorIP7AstNodeEdeB8ue170006Ev, symObjAddr: 0x384C, symBinAddr: 0x100005ECC, symSize: 0x28 }
  - { offsetInCU: 0x5D4F9, offset: 0x5D4F9, size: 0x8, addend: 0x0, symName: __ZNSt3__116reverse_iteratorIP7AstNodeEC2B8ue170006ES2_, symObjAddr: 0x3874, symBinAddr: 0x100005EF4, symSize: 0x28 }
  - { offsetInCU: 0x5D532, offset: 0x5D532, size: 0x8, addend: 0x0, symName: __ZNSt3__118__unwrap_iter_implIP7AstNodeLb1EE8__unwrapB8ue170006ES2_, symObjAddr: 0x389C, symBinAddr: 0x100005F1C, symSize: 0x24 }
  - { offsetInCU: 0x5D556, offset: 0x5D556, size: 0x8, addend: 0x0, symName: __ZNSt3__118__unwrap_iter_implIP7AstNodeLb1EE8__rewrapB8ue170006ES2_S2_, symObjAddr: 0x38C0, symBinAddr: 0x100005F40, symSize: 0x50 }
  - { offsetInCU: 0x5D589, offset: 0x5D589, size: 0x8, addend: 0x0, symName: __ZNSt3__16vectorI7AstNodeNS_9allocatorIS1_EEE21_ConstructTransactionD2B8ue170006Ev, symObjAddr: 0x3910, symBinAddr: 0x100005F90, symSize: 0x20 }
  - { offsetInCU: 0x5D5B3, offset: 0x5D5B3, size: 0x8, addend: 0x0, symName: __ZNSt3__128__exception_guard_exceptionsINS_6vectorI7AstNodeNS_9allocatorIS2_EEE16__destroy_vectorEED2B8ue170006Ev, symObjAddr: 0x3930, symBinAddr: 0x100005FB0, symSize: 0x50 }
  - { offsetInCU: 0x5D5DD, offset: 0x5D5DD, size: 0x8, addend: 0x0, symName: __ZNSt3__16vectorI7AstNodeNS_9allocatorIS1_EEE16__destroy_vectorclB8ue170006Ev, symObjAddr: 0x3980, symBinAddr: 0x100006000, symSize: 0x90 }
  - { offsetInCU: 0x5D603, offset: 0x5D603, size: 0x8, addend: 0x0, symName: __ZNSt3__16vectorI7AstNodeNS_9allocatorIS1_EEE7__clearB8ue170006Ev, symObjAddr: 0x3A10, symBinAddr: 0x100006090, symSize: 0x28 }
  - { offsetInCU: 0x5D629, offset: 0x5D629, size: 0x8, addend: 0x0, symName: __ZNKSt3__16vectorI7AstNodeNS_9allocatorIS1_EEE17__annotate_deleteB8ue170006Ev, symObjAddr: 0x3A38, symBinAddr: 0x1000060B8, symSize: 0xB8 }
  - { offsetInCU: 0x5D64F, offset: 0x5D64F, size: 0x8, addend: 0x0, symName: __ZNSt3__116allocator_traitsINS_9allocatorI7AstNodeEEE10deallocateB8ue170006ERS3_PS2_m, symObjAddr: 0x3AF0, symBinAddr: 0x100006170, symSize: 0x34 }
  - { offsetInCU: 0x5D694, offset: 0x5D694, size: 0x8, addend: 0x0, symName: __ZNSt3__16vectorI7AstNodeNS_9allocatorIS1_EEE22__base_destruct_at_endB8ue170006EPS1_, symObjAddr: 0x3B24, symBinAddr: 0x1000061A4, symSize: 0x8C }
  - { offsetInCU: 0x5D6DA, offset: 0x5D6DA, size: 0x8, addend: 0x0, symName: __ZNSt3__19allocatorI7AstNodeE10deallocateB8ue170006EPS1_m, symObjAddr: 0x3BB0, symBinAddr: 0x100006230, symSize: 0x40 }
  - { offsetInCU: 0x5D71E, offset: 0x5D71E, size: 0x8, addend: 0x0, symName: __ZNSt3__16vectorI7AstNodeNS_9allocatorIS1_EEED2B8ue170006Ev, symObjAddr: 0x3BF0, symBinAddr: 0x100006270, symSize: 0x40 }
  - { offsetInCU: 0x5D769, offset: 0x5D769, size: 0x8, addend: 0x0, symName: __ZNKSt3__113basic_ostreamIcNS_11char_traitsIcEEE6sentrycvbB8ue170006Ev, symObjAddr: 0x3E1C, symBinAddr: 0x10000649C, symSize: 0x1C }
  - { offsetInCU: 0x5D78F, offset: 0x5D78F, size: 0x8, addend: 0x0, symName: __ZNSt3__119ostreambuf_iteratorIcNS_11char_traitsIcEEEC1B8ue170006ERNS_13basic_ostreamIcS2_EE, symObjAddr: 0x4078, symBinAddr: 0x1000066F8, symSize: 0x34 }
  - { offsetInCU: 0x5D7C8, offset: 0x5D7C8, size: 0x8, addend: 0x0, symName: __ZNKSt3__18ios_base5flagsB8ue170006Ev, symObjAddr: 0x40AC, symBinAddr: 0x10000672C, symSize: 0x18 }
  - { offsetInCU: 0x5D7F0, offset: 0x5D7F0, size: 0x8, addend: 0x0, symName: __ZNKSt3__19basic_iosIcNS_11char_traitsIcEEE4fillB8ue170006Ev, symObjAddr: 0x40C4, symBinAddr: 0x100006744, symSize: 0x64 }
  - { offsetInCU: 0x5D818, offset: 0x5D818, size: 0x8, addend: 0x0, symName: __ZNKSt3__119ostreambuf_iteratorIcNS_11char_traitsIcEEE6failedB8ue170006Ev, symObjAddr: 0x4128, symBinAddr: 0x1000067A8, symSize: 0x24 }
  - { offsetInCU: 0x5D83E, offset: 0x5D83E, size: 0x8, addend: 0x0, symName: __ZNSt3__19basic_iosIcNS_11char_traitsIcEEE8setstateB8ue170006Ej, symObjAddr: 0x414C, symBinAddr: 0x1000067CC, symSize: 0x2C }
  - { offsetInCU: 0x5D874, offset: 0x5D874, size: 0x8, addend: 0x0, symName: __ZNKSt3__18ios_base5widthB8ue170006Ev, symObjAddr: 0x4178, symBinAddr: 0x1000067F8, symSize: 0x18 }
  - { offsetInCU: 0x5D89C, offset: 0x5D89C, size: 0x8, addend: 0x0, symName: __ZNSt3__115basic_streambufIcNS_11char_traitsIcEEE5sputnB8ue170006EPKcl, symObjAddr: 0x4190, symBinAddr: 0x100006810, symSize: 0x3C }
  - { offsetInCU: 0x5D8E0, offset: 0x5D8E0, size: 0x8, addend: 0x0, symName: __ZNSt3__112basic_stringIcNS_11char_traitsIcEENS_9allocatorIcEEEC1B8ue170006Emc, symObjAddr: 0x41CC, symBinAddr: 0x10000684C, symSize: 0x3C }
  - { offsetInCU: 0x5D92A, offset: 0x5D92A, size: 0x8, addend: 0x0, symName: __ZNSt3__112basic_stringIcNS_11char_traitsIcEENS_9allocatorIcEEE4dataB8ue170006Ev, symObjAddr: 0x4208, symBinAddr: 0x100006888, symSize: 0x28 }
  - { offsetInCU: 0x5D950, offset: 0x5D950, size: 0x8, addend: 0x0, symName: __ZNSt3__18ios_base5widthB8ue170006El, symObjAddr: 0x4230, symBinAddr: 0x1000068B0, symSize: 0x2C }
  - { offsetInCU: 0x5D998, offset: 0x5D998, size: 0x8, addend: 0x0, symName: __ZNSt3__112basic_stringIcNS_11char_traitsIcEENS_9allocatorIcEEEC2B8ue170006Emc, symObjAddr: 0x425C, symBinAddr: 0x1000068DC, symSize: 0x4C }
  - { offsetInCU: 0x5D9E2, offset: 0x5D9E2, size: 0x8, addend: 0x0, symName: __ZNSt3__112basic_stringIcNS_11char_traitsIcEENS_9allocatorIcEEE13__get_pointerB8ue170006Ev, symObjAddr: 0x42BC, symBinAddr: 0x10000693C, symSize: 0x54 }
  - { offsetInCU: 0x5DA08, offset: 0x5DA08, size: 0x8, addend: 0x0, symName: __ZNSt3__119ostreambuf_iteratorIcNS_11char_traitsIcEEEC2B8ue170006ERNS_13basic_ostreamIcS2_EE, symObjAddr: 0x4310, symBinAddr: 0x100006990, symSize: 0x54 }
  - { offsetInCU: 0x5DA41, offset: 0x5DA41, size: 0x8, addend: 0x0, symName: __ZNKSt3__19basic_iosIcNS_11char_traitsIcEEE5rdbufB8ue170006Ev, symObjAddr: 0x4364, symBinAddr: 0x1000069E4, symSize: 0x24 }
  - { offsetInCU: 0x5DA69, offset: 0x5DA69, size: 0x8, addend: 0x0, symName: __ZNKSt3__18ios_base5rdbufB8ue170006Ev, symObjAddr: 0x4388, symBinAddr: 0x100006A08, symSize: 0x18 }
  - { offsetInCU: 0x5DA8F, offset: 0x5DA8F, size: 0x8, addend: 0x0, symName: __ZNSt3__111char_traitsIcE11eq_int_typeB8ue170006Eii, symObjAddr: 0x43A0, symBinAddr: 0x100006A20, symSize: 0x28 }
  - { offsetInCU: 0x5DAC4, offset: 0x5DAC4, size: 0x8, addend: 0x0, symName: __ZNSt3__111char_traitsIcE3eofB8ue170006Ev, symObjAddr: 0x43C8, symBinAddr: 0x100006A48, symSize: 0x8 }
  - { offsetInCU: 0x5DAD8, offset: 0x5DAD8, size: 0x8, addend: 0x0, symName: __ZNKSt3__19basic_iosIcNS_11char_traitsIcEEE5widenB8ue170006Ec, symObjAddr: 0x43D0, symBinAddr: 0x100006A50, symSize: 0x84 }
  - { offsetInCU: 0x5DB42, offset: 0x5DB42, size: 0x8, addend: 0x0, symName: __ZNKSt3__15ctypeIcE5widenB8ue170006Ec, symObjAddr: 0x4480, symBinAddr: 0x100006B00, symSize: 0x38 }
  - { offsetInCU: 0x5DB78, offset: 0x5DB78, size: 0x8, addend: 0x0, symName: __ZNSt3__18ios_base8setstateB8ue170006Ej, symObjAddr: 0x44B8, symBinAddr: 0x100006B38, symSize: 0x34 }
  - { offsetInCU: 0x5DBB0, offset: 0x5DBB0, size: 0x8, addend: 0x0, symName: __ZNKSt3__112basic_stringIcNS_11char_traitsIcEENS_9allocatorIcEEE4dataB8ue170006Ev, symObjAddr: 0x44EC, symBinAddr: 0x100006B6C, symSize: 0x28 }
  - { offsetInCU: 0x5DBD6, offset: 0x5DBD6, size: 0x8, addend: 0x0, symName: __ZNKSt3__112basic_stringIcNS_11char_traitsIcEENS_9allocatorIcEEE13__get_pointerB8ue170006Ev, symObjAddr: 0x4528, symBinAddr: 0x100006BA8, symSize: 0x54 }
  - { offsetInCU: 0x5DBFC, offset: 0x5DBFC, size: 0x8, addend: 0x0, symName: __ZNKSt3__112basic_stringIcNS_11char_traitsIcEENS_9allocatorIcEEE18__get_long_pointerB8ue170006Ev, symObjAddr: 0x457C, symBinAddr: 0x100006BFC, symSize: 0x28 }
  - { offsetInCU: 0x5DC22, offset: 0x5DC22, size: 0x8, addend: 0x0, symName: __ZNKSt3__112basic_stringIcNS_11char_traitsIcEENS_9allocatorIcEEE19__get_short_pointerB8ue170006Ev, symObjAddr: 0x45A4, symBinAddr: 0x100006C24, symSize: 0x28 }
  - { offsetInCU: 0x5DC48, offset: 0x5DC48, size: 0x8, addend: 0x0, symName: __ZNSt3__114pointer_traitsIPKcE10pointer_toB8ue170006ERS1_, symObjAddr: 0x45CC, symBinAddr: 0x100006C4C, symSize: 0x14 }
  - { offsetInCU: 0x5DC6C, offset: 0x5DC6C, size: 0x8, addend: 0x0, symName: __ZNSt3__19allocatorIcEC1B8ue170006Ev, symObjAddr: 0x45E0, symBinAddr: 0x100006C60, symSize: 0x2C }
  - { offsetInCU: 0x5DC96, offset: 0x5DC96, size: 0x8, addend: 0x0, symName: __ZNSt3__16vectorI7AstNodeNS_9allocatorIS1_EEEC2B8ue170006Ev, symObjAddr: 0x460C, symBinAddr: 0x100006C8C, symSize: 0x4C }
  - { offsetInCU: 0x5DCC0, offset: 0x5DCC0, size: 0x8, addend: 0x0, symName: __ZNSt3__117__compressed_pairIP7AstNodeNS_9allocatorIS1_EEEC1B8ue170006IDnNS_18__default_init_tagEEEOT_OT0_, symObjAddr: 0x4658, symBinAddr: 0x100006CD8, symSize: 0x3C }
  - { offsetInCU: 0x5DD1A, offset: 0x5DD1A, size: 0x8, addend: 0x0, symName: __ZNSt3__117__compressed_pairIP7AstNodeNS_9allocatorIS1_EEEC2B8ue170006IDnNS_18__default_init_tagEEEOT_OT0_, symObjAddr: 0x4694, symBinAddr: 0x100006D14, symSize: 0x40 }
  - { offsetInCU: 0x5DD74, offset: 0x5DD74, size: 0x8, addend: 0x0, symName: __ZNSt3__122__compressed_pair_elemINS_9allocatorI7AstNodeEELi1ELb1EEC2B8ue170006ENS_18__default_init_tagE, symObjAddr: 0x46D4, symBinAddr: 0x100006D54, symSize: 0x2C }
  - { offsetInCU: 0x5DDA9, offset: 0x5DDA9, size: 0x8, addend: 0x0, symName: __ZNSt3__19allocatorI7AstNodeEC2B8ue170006Ev, symObjAddr: 0x4700, symBinAddr: 0x100006D80, symSize: 0x2C }
  - { offsetInCU: 0x5DDD3, offset: 0x5DDD3, size: 0x8, addend: 0x0, symName: __ZNSt3__116__non_trivial_ifILb1ENS_9allocatorI7AstNodeEEEC2B8ue170006Ev, symObjAddr: 0x472C, symBinAddr: 0x100006DAC, symSize: 0x14 }
  - { offsetInCU: 0x5DDFD, offset: 0x5DDFD, size: 0x8, addend: 0x0, symName: __ZNSt3__16vectorI7AstNodeNS_9allocatorIS1_EEE13__move_assignERS4_NS_17integral_constantIbLb1EEE, symObjAddr: 0x4740, symBinAddr: 0x100006DC0, symSize: 0x94 }
  - { offsetInCU: 0x5DE41, offset: 0x5DE41, size: 0x8, addend: 0x0, symName: __ZNSt3__16vectorI7AstNodeNS_9allocatorIS1_EEE13__vdeallocateEv, symObjAddr: 0x47D4, symBinAddr: 0x100006E54, symSize: 0x94 }
  - { offsetInCU: 0x5DE69, offset: 0x5DE69, size: 0x8, addend: 0x0, symName: __ZNSt3__16vectorI7AstNodeNS_9allocatorIS1_EEE19__move_assign_allocB8ue170006ERS4_, symObjAddr: 0x4868, symBinAddr: 0x100006EE8, symSize: 0x2C }
  - { offsetInCU: 0x5DE9F, offset: 0x5DE9F, size: 0x8, addend: 0x0, symName: __ZNSt3__16vectorI7AstNodeNS_9allocatorIS1_EEE5clearB8ue170006Ev, symObjAddr: 0x4894, symBinAddr: 0x100006F14, symSize: 0x44 }
  - { offsetInCU: 0x5DED5, offset: 0x5DED5, size: 0x8, addend: 0x0, symName: __ZNKSt3__16vectorI7AstNodeNS_9allocatorIS1_EEE17__annotate_shrinkB8ue170006Em, symObjAddr: 0x48D8, symBinAddr: 0x100006F58, symSize: 0xB4 }
  - { offsetInCU: 0x5DF0B, offset: 0x5DF0B, size: 0x8, addend: 0x0, symName: __ZNSt3__16vectorI7AstNodeNS_9allocatorIS1_EEE19__move_assign_allocB8ue170006ERS4_NS_17integral_constantIbLb1EEE, symObjAddr: 0x498C, symBinAddr: 0x10000700C, symSize: 0x38 }
  - { offsetInCU: 0x5DF4D, offset: 0x5DF4D, size: 0x8, addend: 0x0, symName: __ZNSt3__16vectorI7AstNodeNS_9allocatorIS1_EEE6assignIPKS1_Li0EEEvT_S8_, symObjAddr: 0x49C4, symBinAddr: 0x100007044, symSize: 0x5C }
  - { offsetInCU: 0x5DFA4, offset: 0x5DFA4, size: 0x8, addend: 0x0, symName: __ZNKSt16initializer_listI7AstNodeE5beginB8ue170006Ev, symObjAddr: 0x4A20, symBinAddr: 0x1000070A0, symSize: 0x18 }
  - { offsetInCU: 0x5DFCA, offset: 0x5DFCA, size: 0x8, addend: 0x0, symName: __ZNKSt16initializer_listI7AstNodeE3endB8ue170006Ev, symObjAddr: 0x4A38, symBinAddr: 0x1000070B8, symSize: 0x20 }
  - { offsetInCU: 0x5DFF0, offset: 0x5DFF0, size: 0x8, addend: 0x0, symName: __ZNSt3__16vectorI7AstNodeNS_9allocatorIS1_EEE18__assign_with_sizeB8ue170006IPKS1_S7_EEvT_T0_l, symObjAddr: 0x4A58, symBinAddr: 0x1000070D8, symSize: 0x164 }
  - { offsetInCU: 0x5E0A8, offset: 0x5E0A8, size: 0x8, addend: 0x0, symName: __ZNSt3__16vectorI7AstNodeNS_9allocatorIS1_EEE18__construct_at_endIPKS1_S7_EEvT_T0_m, symObjAddr: 0x4C5C, symBinAddr: 0x1000072DC, symSize: 0x8C }
  - { offsetInCU: 0x5E122, offset: 0x5E122, size: 0x8, addend: 0x0, symName: __ZNSt3__16vectorI7AstNodeNS_9allocatorIS1_EEE17__destruct_at_endB8ue170006EPS1_, symObjAddr: 0x4D2C, symBinAddr: 0x1000073AC, symSize: 0x4C }
  - { offsetInCU: 0x5E168, offset: 0x5E168, size: 0x8, addend: 0x0, symName: __ZNKSt3__16vectorI7AstNodeNS_9allocatorIS1_EEE11__recommendB8ue170006Em, symObjAddr: 0x4D78, symBinAddr: 0x1000073F8, symSize: 0xB4 }
  - { offsetInCU: 0x5E1E2, offset: 0x5E1E2, size: 0x8, addend: 0x0, symName: __ZNSt3__14pairIPK7AstNodeS3_EC1B8ue170006IS3_S3_LPv0EEEOT_OT0_, symObjAddr: 0x50D0, symBinAddr: 0x100007750, symSize: 0x3C }
  - { offsetInCU: 0x5E243, offset: 0x5E243, size: 0x8, addend: 0x0, symName: __ZNSt3__14pairIPK7AstNodeS3_EC2B8ue170006IS3_S3_LPv0EEEOT_OT0_, symObjAddr: 0x510C, symBinAddr: 0x10000778C, symSize: 0x34 }
  - { offsetInCU: 0x5E2A4, offset: 0x5E2A4, size: 0x8, addend: 0x0, symName: __ZNSt3__118__unwrap_iter_implIPK7AstNodeLb1EE8__unwrapB8ue170006ES3_, symObjAddr: 0x5140, symBinAddr: 0x1000077C0, symSize: 0x24 }
  - { offsetInCU: 0x5E2C8, offset: 0x5E2C8, size: 0x8, addend: 0x0, symName: __ZNSt3__116allocator_traitsINS_9allocatorI7AstNodeEEE9constructB8ue170006IS2_JRKS2_EvEEvRS3_PT_DpOT0_, symObjAddr: 0x5178, symBinAddr: 0x1000077F8, symSize: 0x34 }
  - { offsetInCU: 0x5E323, offset: 0x5E323, size: 0x8, addend: 0x0, symName: __ZNSt3__19allocatorI7AstNodeE9constructB8ue170006IS1_JRKS1_EEEvPT_DpOT0_, symObjAddr: 0x51AC, symBinAddr: 0x10000782C, symSize: 0x30 }
  - { offsetInCU: 0x5E3A1, offset: 0x5E3A1, size: 0x8, addend: 0x0, symName: __ZNKSt3__111__copy_loopINS_17_ClassicAlgPolicyEEclB8ue170006IPK7AstNodeS6_PS4_EENS_4pairIT_T1_EES9_T0_SA_, symObjAddr: 0x52D4, symBinAddr: 0x100007954, symSize: 0x88 }
  - { offsetInCU: 0x5E40F, offset: 0x5E40F, size: 0x8, addend: 0x0, symName: __ZN7AstNodeaSERKS_, symObjAddr: 0x53C0, symBinAddr: 0x100007A40, symSize: 0x48 }
  - { offsetInCU: 0x5E440, offset: 0x5E440, size: 0x8, addend: 0x0, symName: __ZNSt3__16vectorI7AstNodeNS_9allocatorIS1_EEEaSB8ue170006ERKS4_, symObjAddr: 0x5408, symBinAddr: 0x100007A88, symSize: 0x68 }
  - { offsetInCU: 0x5E478, offset: 0x5E478, size: 0x8, addend: 0x0, symName: __ZNSt3__16vectorI7AstNodeNS_9allocatorIS1_EEE19__copy_assign_allocB8ue170006ERKS4_, symObjAddr: 0x5470, symBinAddr: 0x100007AF0, symSize: 0x2C }
  - { offsetInCU: 0x5E4AE, offset: 0x5E4AE, size: 0x8, addend: 0x0, symName: __ZNSt3__16vectorI7AstNodeNS_9allocatorIS1_EEE6assignIPS1_Li0EEEvT_S7_, symObjAddr: 0x549C, symBinAddr: 0x100007B1C, symSize: 0x5C }
  - { offsetInCU: 0x5E505, offset: 0x5E505, size: 0x8, addend: 0x0, symName: __ZNSt3__16vectorI7AstNodeNS_9allocatorIS1_EEE19__copy_assign_allocB8ue170006ERKS4_NS_17integral_constantIbLb0EEE, symObjAddr: 0x54F8, symBinAddr: 0x100007B78, symSize: 0x14 }
  - { offsetInCU: 0x5E543, offset: 0x5E543, size: 0x8, addend: 0x0, symName: __ZNSt3__16vectorI7AstNodeNS_9allocatorIS1_EEE18__assign_with_sizeB8ue170006IPS1_S6_EEvT_T0_l, symObjAddr: 0x550C, symBinAddr: 0x100007B8C, symSize: 0x164 }
  - { offsetInCU: 0x5E5FB, offset: 0x5E5FB, size: 0x8, addend: 0x0, symName: __ZNKSt3__111__copy_loopINS_17_ClassicAlgPolicyEEclB8ue170006IP7AstNodeS5_S5_EENS_4pairIT_T1_EES7_T0_S8_, symObjAddr: 0x58AC, symBinAddr: 0x100007F2C, symSize: 0x88 }
  - { offsetInCU: 0x5E669, offset: 0x5E669, size: 0x8, addend: 0x0, symName: __ZNSt3__14pairIPK7AstNodePS1_EC1B8ue170006IS3_S4_LPv0EEEOT_OT0_, symObjAddr: 0x5988, symBinAddr: 0x100008008, symSize: 0x3C }
  - { offsetInCU: 0x5E6CA, offset: 0x5E6CA, size: 0x8, addend: 0x0, symName: __ZNSt3__14pairIPK7AstNodePS1_EC2B8ue170006IS3_S4_LPv0EEEOT_OT0_, symObjAddr: 0x59C4, symBinAddr: 0x100008044, symSize: 0x34 }
  - { offsetInCU: 0x5E72B, offset: 0x5E72B, size: 0x8, addend: 0x0, symName: __ZNSt3__118__unwrap_iter_implIPK7AstNodeLb1EE8__rewrapB8ue170006ES3_S3_, symObjAddr: 0x5A34, symBinAddr: 0x1000080B4, symSize: 0x50 }
  - { offsetInCU: 0x5E75E, offset: 0x5E75E, size: 0x8, addend: 0x0, symName: __ZNSt3__16vectorINS_12basic_stringIcNS_11char_traitsIcEENS_9allocatorIcEEEENS4_IS6_EEEC2B8ue170006Ev, symObjAddr: 0x5B2C, symBinAddr: 0x1000081AC, symSize: 0x4C }
  - { offsetInCU: 0x5E788, offset: 0x5E788, size: 0x8, addend: 0x0, symName: __ZNSt3__117__compressed_pairIPNS_12basic_stringIcNS_11char_traitsIcEENS_9allocatorIcEEEENS4_IS6_EEEC1B8ue170006IDnNS_18__default_init_tagEEEOT_OT0_, symObjAddr: 0x5B78, symBinAddr: 0x1000081F8, symSize: 0x3C }
  - { offsetInCU: 0x5E7E2, offset: 0x5E7E2, size: 0x8, addend: 0x0, symName: __ZNSt3__117__compressed_pairIPNS_12basic_stringIcNS_11char_traitsIcEENS_9allocatorIcEEEENS4_IS6_EEEC2B8ue170006IDnNS_18__default_init_tagEEEOT_OT0_, symObjAddr: 0x5BB4, symBinAddr: 0x100008234, symSize: 0x40 }
  - { offsetInCU: 0x5E83C, offset: 0x5E83C, size: 0x8, addend: 0x0, symName: __ZNSt3__122__compressed_pair_elemIPNS_12basic_stringIcNS_11char_traitsIcEENS_9allocatorIcEEEELi0ELb0EEC2B8ue170006IDnvEEOT_, symObjAddr: 0x5BF4, symBinAddr: 0x100008274, symSize: 0x1C }
  - { offsetInCU: 0x5E880, offset: 0x5E880, size: 0x8, addend: 0x0, symName: __ZNSt3__122__compressed_pair_elemINS_9allocatorINS_12basic_stringIcNS_11char_traitsIcEENS1_IcEEEEEELi1ELb1EEC2B8ue170006ENS_18__default_init_tagE, symObjAddr: 0x5C10, symBinAddr: 0x100008290, symSize: 0x2C }
  - { offsetInCU: 0x5E8B5, offset: 0x5E8B5, size: 0x8, addend: 0x0, symName: __ZNSt3__19allocatorINS_12basic_stringIcNS_11char_traitsIcEENS0_IcEEEEEC2B8ue170006Ev, symObjAddr: 0x5C3C, symBinAddr: 0x1000082BC, symSize: 0x2C }
  - { offsetInCU: 0x5E8DF, offset: 0x5E8DF, size: 0x8, addend: 0x0, symName: __ZNSt3__116__non_trivial_ifILb1ENS_9allocatorINS_12basic_stringIcNS_11char_traitsIcEENS1_IcEEEEEEEC2B8ue170006Ev, symObjAddr: 0x5C68, symBinAddr: 0x1000082E8, symSize: 0x14 }
  - { offsetInCU: 0x5E909, offset: 0x5E909, size: 0x8, addend: 0x0, symName: __ZNSt3__16vectorINS_12basic_stringIcNS_11char_traitsIcEENS_9allocatorIcEEEENS4_IS6_EEED2B8ue170006Ev, symObjAddr: 0x5C7C, symBinAddr: 0x1000082FC, symSize: 0x44 }
  - { offsetInCU: 0x5E933, offset: 0x5E933, size: 0x8, addend: 0x0, symName: __ZNSt3__16vectorINS_12basic_stringIcNS_11char_traitsIcEENS_9allocatorIcEEEENS4_IS6_EEE16__destroy_vectorC1B8ue170006ERS8_, symObjAddr: 0x5CC0, symBinAddr: 0x100008340, symSize: 0x34 }
  - { offsetInCU: 0x5E96D, offset: 0x5E96D, size: 0x8, addend: 0x0, symName: __ZNSt3__16vectorINS_12basic_stringIcNS_11char_traitsIcEENS_9allocatorIcEEEENS4_IS6_EEE16__destroy_vectorclB8ue170006Ev, symObjAddr: 0x5CF4, symBinAddr: 0x100008374, symSize: 0x90 }
  - { offsetInCU: 0x5E993, offset: 0x5E993, size: 0x8, addend: 0x0, symName: __ZNSt3__16vectorINS_12basic_stringIcNS_11char_traitsIcEENS_9allocatorIcEEEENS4_IS6_EEE16__destroy_vectorC2B8ue170006ERS8_, symObjAddr: 0x5D84, symBinAddr: 0x100008404, symSize: 0x20 }
  - { offsetInCU: 0x5E9CD, offset: 0x5E9CD, size: 0x8, addend: 0x0, symName: __ZNSt3__16vectorINS_12basic_stringIcNS_11char_traitsIcEENS_9allocatorIcEEEENS4_IS6_EEE7__clearB8ue170006Ev, symObjAddr: 0x5DA4, symBinAddr: 0x100008424, symSize: 0x28 }
  - { offsetInCU: 0x5E9F3, offset: 0x5E9F3, size: 0x8, addend: 0x0, symName: __ZNKSt3__16vectorINS_12basic_stringIcNS_11char_traitsIcEENS_9allocatorIcEEEENS4_IS6_EEE17__annotate_deleteB8ue170006Ev, symObjAddr: 0x5DCC, symBinAddr: 0x10000844C, symSize: 0xD4 }
  - { offsetInCU: 0x5EA19, offset: 0x5EA19, size: 0x8, addend: 0x0, symName: __ZNSt3__116allocator_traitsINS_9allocatorINS_12basic_stringIcNS_11char_traitsIcEENS1_IcEEEEEEE10deallocateB8ue170006ERS7_PS6_m, symObjAddr: 0x5EA0, symBinAddr: 0x100008520, symSize: 0x34 }
  - { offsetInCU: 0x5EA5E, offset: 0x5EA5E, size: 0x8, addend: 0x0, symName: __ZNSt3__16vectorINS_12basic_stringIcNS_11char_traitsIcEENS_9allocatorIcEEEENS4_IS6_EEE7__allocB8ue170006Ev, symObjAddr: 0x5ED4, symBinAddr: 0x100008554, symSize: 0x28 }
  - { offsetInCU: 0x5EA84, offset: 0x5EA84, size: 0x8, addend: 0x0, symName: __ZNKSt3__16vectorINS_12basic_stringIcNS_11char_traitsIcEENS_9allocatorIcEEEENS4_IS6_EEE8capacityB8ue170006Ev, symObjAddr: 0x5EFC, symBinAddr: 0x10000857C, symSize: 0x40 }
  - { offsetInCU: 0x5EAAA, offset: 0x5EAAA, size: 0x8, addend: 0x0, symName: __ZNSt3__16vectorINS_12basic_stringIcNS_11char_traitsIcEENS_9allocatorIcEEEENS4_IS6_EEE22__base_destruct_at_endB8ue170006EPS6_, symObjAddr: 0x5F3C, symBinAddr: 0x1000085BC, symSize: 0x8C }
  - { offsetInCU: 0x5EAF0, offset: 0x5EAF0, size: 0x8, addend: 0x0, symName: __ZNSt3__116allocator_traitsINS_9allocatorINS_12basic_stringIcNS_11char_traitsIcEENS1_IcEEEEEEE7destroyB8ue170006IS6_vEEvRS7_PT_, symObjAddr: 0x5FC8, symBinAddr: 0x100008648, symSize: 0x2C }
  - { offsetInCU: 0x5EB30, offset: 0x5EB30, size: 0x8, addend: 0x0, symName: __ZNSt3__19allocatorINS_12basic_stringIcNS_11char_traitsIcEENS0_IcEEEEE7destroyB8ue170006EPS5_, symObjAddr: 0x6008, symBinAddr: 0x100008688, symSize: 0x28 }
  - { offsetInCU: 0x5EB65, offset: 0x5EB65, size: 0x8, addend: 0x0, symName: __ZNKSt3__16vectorINS_12basic_stringIcNS_11char_traitsIcEENS_9allocatorIcEEEENS4_IS6_EEE31__annotate_contiguous_containerB8ue170006EPKvSA_SA_SA_, symObjAddr: 0x6030, symBinAddr: 0x1000086B0, symSize: 0x20 }
  - { offsetInCU: 0x5EBBB, offset: 0x5EBBB, size: 0x8, addend: 0x0, symName: __ZNKSt3__16vectorINS_12basic_stringIcNS_11char_traitsIcEENS_9allocatorIcEEEENS4_IS6_EEE4dataB8ue170006Ev, symObjAddr: 0x6050, symBinAddr: 0x1000086D0, symSize: 0x28 }
  - { offsetInCU: 0x5EBE1, offset: 0x5EBE1, size: 0x8, addend: 0x0, symName: __ZNKSt3__16vectorINS_12basic_stringIcNS_11char_traitsIcEENS_9allocatorIcEEEENS4_IS6_EEE4sizeB8ue170006Ev, symObjAddr: 0x6078, symBinAddr: 0x1000086F8, symSize: 0x28 }
  - { offsetInCU: 0x5EC07, offset: 0x5EC07, size: 0x8, addend: 0x0, symName: __ZNSt3__19allocatorINS_12basic_stringIcNS_11char_traitsIcEENS0_IcEEEEE10deallocateB8ue170006EPS5_m, symObjAddr: 0x60A0, symBinAddr: 0x100008720, symSize: 0x44 }
  - { offsetInCU: 0x5EC4B, offset: 0x5EC4B, size: 0x8, addend: 0x0, symName: __ZNSt3__117__compressed_pairIPNS_12basic_stringIcNS_11char_traitsIcEENS_9allocatorIcEEEENS4_IS6_EEE6secondB8ue170006Ev, symObjAddr: 0x60E4, symBinAddr: 0x100008764, symSize: 0x24 }
  - { offsetInCU: 0x5EC71, offset: 0x5EC71, size: 0x8, addend: 0x0, symName: __ZNSt3__122__compressed_pair_elemINS_9allocatorINS_12basic_stringIcNS_11char_traitsIcEENS1_IcEEEEEELi1ELb1EE5__getB8ue170006Ev, symObjAddr: 0x6108, symBinAddr: 0x100008788, symSize: 0x14 }
  - { offsetInCU: 0x5EC97, offset: 0x5EC97, size: 0x8, addend: 0x0, symName: __ZNKSt3__16vectorINS_12basic_stringIcNS_11char_traitsIcEENS_9allocatorIcEEEENS4_IS6_EEE9__end_capB8ue170006Ev, symObjAddr: 0x611C, symBinAddr: 0x10000879C, symSize: 0x28 }
  - { offsetInCU: 0x5ECBD, offset: 0x5ECBD, size: 0x8, addend: 0x0, symName: __ZNKSt3__117__compressed_pairIPNS_12basic_stringIcNS_11char_traitsIcEENS_9allocatorIcEEEENS4_IS6_EEE5firstB8ue170006Ev, symObjAddr: 0x6144, symBinAddr: 0x1000087C4, symSize: 0x24 }
  - { offsetInCU: 0x5ECE3, offset: 0x5ECE3, size: 0x8, addend: 0x0, symName: __ZNKSt3__122__compressed_pair_elemIPNS_12basic_stringIcNS_11char_traitsIcEENS_9allocatorIcEEEELi0ELb0EE5__getB8ue170006Ev, symObjAddr: 0x6168, symBinAddr: 0x1000087E8, symSize: 0x14 }
  - { offsetInCU: 0x5ED09, offset: 0x5ED09, size: 0x8, addend: 0x0, symName: __ZNSt3__112basic_stringIcNS_11char_traitsIcEENS_9allocatorIcEEE15__make_iteratorB8ue170006EPc, symObjAddr: 0x617C, symBinAddr: 0x1000087FC, symSize: 0x30 }
  - { offsetInCU: 0x5ED3F, offset: 0x5ED3F, size: 0x8, addend: 0x0, symName: __ZNSt3__111__wrap_iterIPcEC1B8ue170006ES1_, symObjAddr: 0x61AC, symBinAddr: 0x10000882C, symSize: 0x34 }
  - { offsetInCU: 0x5ED78, offset: 0x5ED78, size: 0x8, addend: 0x0, symName: __ZNSt3__111__wrap_iterIPcEC2B8ue170006ES1_, symObjAddr: 0x61E0, symBinAddr: 0x100008860, symSize: 0x20 }
  - { offsetInCU: 0x5EDB1, offset: 0x5EDB1, size: 0x8, addend: 0x0, symName: __ZNSt3__16vectorINS_12basic_stringIcNS_11char_traitsIcEENS_9allocatorIcEEEENS4_IS6_EEE9__end_capB8ue170006Ev, symObjAddr: 0x6200, symBinAddr: 0x100008880, symSize: 0x28 }
  - { offsetInCU: 0x5EDD7, offset: 0x5EDD7, size: 0x8, addend: 0x0, symName: __ZNSt3__16vectorINS_12basic_stringIcNS_11char_traitsIcEENS_9allocatorIcEEEENS4_IS6_EEE22__construct_one_at_endB8ue170006IJRKS6_EEEvDpOT_, symObjAddr: 0x6228, symBinAddr: 0x1000088A8, symSize: 0x90 }
  - { offsetInCU: 0x5EE28, offset: 0x5EE28, size: 0x8, addend: 0x0, symName: __ZNSt3__16vectorINS_12basic_stringIcNS_11char_traitsIcEENS_9allocatorIcEEEENS4_IS6_EEE21__push_back_slow_pathIRKS6_EEvOT_, symObjAddr: 0x62B8, symBinAddr: 0x100008938, symSize: 0xD8 }
  - { offsetInCU: 0x5EE89, offset: 0x5EE89, size: 0x8, addend: 0x0, symName: __ZNSt3__117__compressed_pairIPNS_12basic_stringIcNS_11char_traitsIcEENS_9allocatorIcEEEENS4_IS6_EEE5firstB8ue170006Ev, symObjAddr: 0x6390, symBinAddr: 0x100008A10, symSize: 0x24 }
  - { offsetInCU: 0x5EEAF, offset: 0x5EEAF, size: 0x8, addend: 0x0, symName: __ZNSt3__122__compressed_pair_elemIPNS_12basic_stringIcNS_11char_traitsIcEENS_9allocatorIcEEEELi0ELb0EE5__getB8ue170006Ev, symObjAddr: 0x63B4, symBinAddr: 0x100008A34, symSize: 0x14 }
  - { offsetInCU: 0x5EEF0, offset: 0x5EEF0, size: 0x8, addend: 0x0, symName: __ZNSt3__16vectorINS_12basic_stringIcNS_11char_traitsIcEENS_9allocatorIcEEEENS4_IS6_EEE21_ConstructTransactionC1B8ue170006ERS8_m, symObjAddr: 0x63C8, symBinAddr: 0x100008A48, symSize: 0x3C }
  - { offsetInCU: 0x5EF3A, offset: 0x5EF3A, size: 0x8, addend: 0x0, symName: __ZNSt3__116allocator_traitsINS_9allocatorINS_12basic_stringIcNS_11char_traitsIcEENS1_IcEEEEEEE9constructB8ue170006IS6_JRKS6_EvEEvRS7_PT_DpOT0_, symObjAddr: 0x6404, symBinAddr: 0x100008A84, symSize: 0x34 }
  - { offsetInCU: 0x5EF95, offset: 0x5EF95, size: 0x8, addend: 0x0, symName: __ZNSt3__16vectorINS_12basic_stringIcNS_11char_traitsIcEENS_9allocatorIcEEEENS4_IS6_EEE21_ConstructTransactionD1B8ue170006Ev, symObjAddr: 0x6438, symBinAddr: 0x100008AB8, symSize: 0x2C }
  - { offsetInCU: 0x5EFBF, offset: 0x5EFBF, size: 0x8, addend: 0x0, symName: __ZNSt3__16vectorINS_12basic_stringIcNS_11char_traitsIcEENS_9allocatorIcEEEENS4_IS6_EEE21_ConstructTransactionC2B8ue170006ERS8_m, symObjAddr: 0x6464, symBinAddr: 0x100008AE4, symSize: 0x4C }
  - { offsetInCU: 0x5F009, offset: 0x5F009, size: 0x8, addend: 0x0, symName: __ZNSt3__19allocatorINS_12basic_stringIcNS_11char_traitsIcEENS0_IcEEEEE9constructB8ue170006IS5_JRKS5_EEEvPT_DpOT0_, symObjAddr: 0x64B0, symBinAddr: 0x100008B30, symSize: 0x30 }
  - { offsetInCU: 0x5F061, offset: 0x5F061, size: 0x8, addend: 0x0, symName: __ZNSt3__16vectorINS_12basic_stringIcNS_11char_traitsIcEENS_9allocatorIcEEEENS4_IS6_EEE21_ConstructTransactionD2B8ue170006Ev, symObjAddr: 0x64E0, symBinAddr: 0x100008B60, symSize: 0x20 }
  - { offsetInCU: 0x5F08B, offset: 0x5F08B, size: 0x8, addend: 0x0, symName: __ZNKSt3__16vectorINS_12basic_stringIcNS_11char_traitsIcEENS_9allocatorIcEEEENS4_IS6_EEE11__recommendB8ue170006Em, symObjAddr: 0x6500, symBinAddr: 0x100008B80, symSize: 0xB4 }
  - { offsetInCU: 0x5F0E3, offset: 0x5F0E3, size: 0x8, addend: 0x0, symName: __ZNSt3__114__split_bufferINS_12basic_stringIcNS_11char_traitsIcEENS_9allocatorIcEEEERNS4_IS6_EEEC1EmmS8_, symObjAddr: 0x65B4, symBinAddr: 0x100008C34, symSize: 0x44 }
  - { offsetInCU: 0x5F13C, offset: 0x5F13C, size: 0x8, addend: 0x0, symName: __ZNSt3__114__split_bufferINS_12basic_stringIcNS_11char_traitsIcEENS_9allocatorIcEEEERNS4_IS6_EEED1Ev, symObjAddr: 0x6708, symBinAddr: 0x100008D88, symSize: 0x2C }
  - { offsetInCU: 0x5F168, offset: 0x5F168, size: 0x8, addend: 0x0, symName: __ZNKSt3__16vectorINS_12basic_stringIcNS_11char_traitsIcEENS_9allocatorIcEEEENS4_IS6_EEE8max_sizeEv, symObjAddr: 0x6734, symBinAddr: 0x100008DB4, symSize: 0x60 }
  - { offsetInCU: 0x5F190, offset: 0x5F190, size: 0x8, addend: 0x0, symName: __ZNKSt3__16vectorINS_12basic_stringIcNS_11char_traitsIcEENS_9allocatorIcEEEENS4_IS6_EEE20__throw_length_errorB8ue170006Ev, symObjAddr: 0x6794, symBinAddr: 0x100008E14, symSize: 0x1C }
  - { offsetInCU: 0x5F1C1, offset: 0x5F1C1, size: 0x8, addend: 0x0, symName: __ZNSt3__116allocator_traitsINS_9allocatorINS_12basic_stringIcNS_11char_traitsIcEENS1_IcEEEEEEE8max_sizeB8ue170006IS7_vEEmRKS7_, symObjAddr: 0x67B0, symBinAddr: 0x100008E30, symSize: 0x24 }
  - { offsetInCU: 0x5F1F1, offset: 0x5F1F1, size: 0x8, addend: 0x0, symName: __ZNKSt3__16vectorINS_12basic_stringIcNS_11char_traitsIcEENS_9allocatorIcEEEENS4_IS6_EEE7__allocB8ue170006Ev, symObjAddr: 0x67D4, symBinAddr: 0x100008E54, symSize: 0x28 }
  - { offsetInCU: 0x5F217, offset: 0x5F217, size: 0x8, addend: 0x0, symName: __ZNKSt3__19allocatorINS_12basic_stringIcNS_11char_traitsIcEENS0_IcEEEEE8max_sizeB8ue170006Ev, symObjAddr: 0x67FC, symBinAddr: 0x100008E7C, symSize: 0x18 }
  - { offsetInCU: 0x5F23D, offset: 0x5F23D, size: 0x8, addend: 0x0, symName: __ZNKSt3__117__compressed_pairIPNS_12basic_stringIcNS_11char_traitsIcEENS_9allocatorIcEEEENS4_IS6_EEE6secondB8ue170006Ev, symObjAddr: 0x6814, symBinAddr: 0x100008E94, symSize: 0x24 }
  - { offsetInCU: 0x5F263, offset: 0x5F263, size: 0x8, addend: 0x0, symName: __ZNKSt3__122__compressed_pair_elemINS_9allocatorINS_12basic_stringIcNS_11char_traitsIcEENS1_IcEEEEEELi1ELb1EE5__getB8ue170006Ev, symObjAddr: 0x6838, symBinAddr: 0x100008EB8, symSize: 0x14 }
  - { offsetInCU: 0x5F289, offset: 0x5F289, size: 0x8, addend: 0x0, symName: __ZNSt3__114__split_bufferINS_12basic_stringIcNS_11char_traitsIcEENS_9allocatorIcEEEERNS4_IS6_EEEC2EmmS8_, symObjAddr: 0x684C, symBinAddr: 0x100008ECC, symSize: 0xE0 }
  - { offsetInCU: 0x5F301, offset: 0x5F301, size: 0x8, addend: 0x0, symName: __ZNSt3__117__compressed_pairIPNS_12basic_stringIcNS_11char_traitsIcEENS_9allocatorIcEEEERNS4_IS6_EEEC1B8ue170006IDnS9_EEOT_OT0_, symObjAddr: 0x692C, symBinAddr: 0x100008FAC, symSize: 0x3C }
  - { offsetInCU: 0x5F35B, offset: 0x5F35B, size: 0x8, addend: 0x0, symName: __ZNSt3__114__split_bufferINS_12basic_stringIcNS_11char_traitsIcEENS_9allocatorIcEEEERNS4_IS6_EEE7__allocB8ue170006Ev, symObjAddr: 0x69A8, symBinAddr: 0x100009028, symSize: 0x28 }
  - { offsetInCU: 0x5F381, offset: 0x5F381, size: 0x8, addend: 0x0, symName: __ZNSt3__114__split_bufferINS_12basic_stringIcNS_11char_traitsIcEENS_9allocatorIcEEEERNS4_IS6_EEE9__end_capB8ue170006Ev, symObjAddr: 0x69D0, symBinAddr: 0x100009050, symSize: 0x28 }
  - { offsetInCU: 0x5F3A7, offset: 0x5F3A7, size: 0x8, addend: 0x0, symName: __ZNSt3__117__compressed_pairIPNS_12basic_stringIcNS_11char_traitsIcEENS_9allocatorIcEEEERNS4_IS6_EEEC2B8ue170006IDnS9_EEOT_OT0_, symObjAddr: 0x69F8, symBinAddr: 0x100009078, symSize: 0x48 }
  - { offsetInCU: 0x5F401, offset: 0x5F401, size: 0x8, addend: 0x0, symName: __ZNSt3__122__compressed_pair_elemIRNS_9allocatorINS_12basic_stringIcNS_11char_traitsIcEENS1_IcEEEEEELi1ELb0EEC2B8ue170006IS8_vEEOT_, symObjAddr: 0x6A40, symBinAddr: 0x1000090C0, symSize: 0x20 }
  - { offsetInCU: 0x5F445, offset: 0x5F445, size: 0x8, addend: 0x0, symName: __ZNSt3__19allocatorINS_12basic_stringIcNS_11char_traitsIcEENS0_IcEEEEE8allocateB8ue170006Em, symObjAddr: 0x6A60, symBinAddr: 0x1000090E0, symSize: 0x5C }
  - { offsetInCU: 0x5F47A, offset: 0x5F47A, size: 0x8, addend: 0x0, symName: __ZNSt3__117__compressed_pairIPNS_12basic_stringIcNS_11char_traitsIcEENS_9allocatorIcEEEERNS4_IS6_EEE6secondB8ue170006Ev, symObjAddr: 0x6ABC, symBinAddr: 0x10000913C, symSize: 0x28 }
  - { offsetInCU: 0x5F4A0, offset: 0x5F4A0, size: 0x8, addend: 0x0, symName: __ZNSt3__122__compressed_pair_elemIRNS_9allocatorINS_12basic_stringIcNS_11char_traitsIcEENS1_IcEEEEEELi1ELb0EE5__getB8ue170006Ev, symObjAddr: 0x6AE4, symBinAddr: 0x100009164, symSize: 0x18 }
  - { offsetInCU: 0x5F4C6, offset: 0x5F4C6, size: 0x8, addend: 0x0, symName: __ZNSt3__117__compressed_pairIPNS_12basic_stringIcNS_11char_traitsIcEENS_9allocatorIcEEEERNS4_IS6_EEE5firstB8ue170006Ev, symObjAddr: 0x6AFC, symBinAddr: 0x10000917C, symSize: 0x24 }
  - { offsetInCU: 0x5F4EC, offset: 0x5F4EC, size: 0x8, addend: 0x0, symName: __ZNSt3__116reverse_iteratorIPNS_12basic_stringIcNS_11char_traitsIcEENS_9allocatorIcEEEEEC1B8ue170006ES7_, symObjAddr: 0x6C4C, symBinAddr: 0x1000092CC, symSize: 0x34 }
  - { offsetInCU: 0x5F525, offset: 0x5F525, size: 0x8, addend: 0x0, symName: __ZNKSt3__116reverse_iteratorIPNS_12basic_stringIcNS_11char_traitsIcEENS_9allocatorIcEEEEE4baseB8ue170006Ev, symObjAddr: 0x6C80, symBinAddr: 0x100009300, symSize: 0x18 }
  - { offsetInCU: 0x5F54B, offset: 0x5F54B, size: 0x8, addend: 0x0, symName: __ZNKSt3__16vectorINS_12basic_stringIcNS_11char_traitsIcEENS_9allocatorIcEEEENS4_IS6_EEE14__annotate_newB8ue170006Em, symObjAddr: 0x6CD4, symBinAddr: 0x100009354, symSize: 0xC8 }
  - { offsetInCU: 0x5F581, offset: 0x5F581, size: 0x8, addend: 0x0, symName: __ZNSt3__129_AllocatorDestroyRangeReverseINS_9allocatorINS_12basic_stringIcNS_11char_traitsIcEENS1_IcEEEEEENS_16reverse_iteratorIPS6_EEEC1B8ue170006ERS7_RSA_SD_, symObjAddr: 0x6DE8, symBinAddr: 0x100009468, symSize: 0x44 }
  - { offsetInCU: 0x5F5E1, offset: 0x5F5E1, size: 0x8, addend: 0x0, symName: __ZNSt3__116allocator_traitsINS_9allocatorINS_12basic_stringIcNS_11char_traitsIcEENS1_IcEEEEEEE9constructB8ue170006IS6_JS6_EvEEvRS7_PT_DpOT0_, symObjAddr: 0x6E74, symBinAddr: 0x1000094F4, symSize: 0x34 }
  - { offsetInCU: 0x5F63C, offset: 0x5F63C, size: 0x8, addend: 0x0, symName: __ZNKSt3__116reverse_iteratorIPNS_12basic_stringIcNS_11char_traitsIcEENS_9allocatorIcEEEEEdeB8ue170006Ev, symObjAddr: 0x6ECC, symBinAddr: 0x10000954C, symSize: 0x28 }
  - { offsetInCU: 0x5F671, offset: 0x5F671, size: 0x8, addend: 0x0, symName: __ZNSt3__116reverse_iteratorIPNS_12basic_stringIcNS_11char_traitsIcEENS_9allocatorIcEEEEEppB8ue170006Ev, symObjAddr: 0x6EF4, symBinAddr: 0x100009574, symSize: 0x20 }
  - { offsetInCU: 0x5F697, offset: 0x5F697, size: 0x8, addend: 0x0, symName: __ZNSt3__128__exception_guard_exceptionsINS_29_AllocatorDestroyRangeReverseINS_9allocatorINS_12basic_stringIcNS_11char_traitsIcEENS2_IcEEEEEENS_16reverse_iteratorIPS7_EEEEE10__completeB8ue170006Ev, symObjAddr: 0x6F14, symBinAddr: 0x100009594, symSize: 0x1C }
  - { offsetInCU: 0x5F6BD, offset: 0x5F6BD, size: 0x8, addend: 0x0, symName: __ZNSt3__128__exception_guard_exceptionsINS_29_AllocatorDestroyRangeReverseINS_9allocatorINS_12basic_stringIcNS_11char_traitsIcEENS2_IcEEEEEENS_16reverse_iteratorIPS7_EEEEED1B8ue170006Ev, symObjAddr: 0x6F30, symBinAddr: 0x1000095B0, symSize: 0x2C }
  - { offsetInCU: 0x5F6E7, offset: 0x5F6E7, size: 0x8, addend: 0x0, symName: __ZNSt3__128__exception_guard_exceptionsINS_29_AllocatorDestroyRangeReverseINS_9allocatorINS_12basic_stringIcNS_11char_traitsIcEENS2_IcEEEEEENS_16reverse_iteratorIPS7_EEEEEC1B8ue170006ESC_, symObjAddr: 0x6F5C, symBinAddr: 0x1000095DC, symSize: 0x34 }
  - { offsetInCU: 0x5F721, offset: 0x5F721, size: 0x8, addend: 0x0, symName: __ZNSt3__128__exception_guard_exceptionsINS_29_AllocatorDestroyRangeReverseINS_9allocatorINS_12basic_stringIcNS_11char_traitsIcEENS2_IcEEEEEENS_16reverse_iteratorIPS7_EEEEEC2B8ue170006ESC_, symObjAddr: 0x6F90, symBinAddr: 0x100009610, symSize: 0x30 }
  - { offsetInCU: 0x5F75B, offset: 0x5F75B, size: 0x8, addend: 0x0, symName: __ZNSt3__129_AllocatorDestroyRangeReverseINS_9allocatorINS_12basic_stringIcNS_11char_traitsIcEENS1_IcEEEEEENS_16reverse_iteratorIPS6_EEEC2B8ue170006ERS7_RSA_SD_, symObjAddr: 0x6FC0, symBinAddr: 0x100009640, symSize: 0x38 }
  - { offsetInCU: 0x5F7B5, offset: 0x5F7B5, size: 0x8, addend: 0x0, symName: __ZNSt3__19allocatorINS_12basic_stringIcNS_11char_traitsIcEENS0_IcEEEEE9constructB8ue170006IS5_JS5_EEEvPT_DpOT0_, symObjAddr: 0x6FF8, symBinAddr: 0x100009678, symSize: 0x30 }
  - { offsetInCU: 0x5F80D, offset: 0x5F80D, size: 0x8, addend: 0x0, symName: __ZNSt3__112basic_stringIcNS_11char_traitsIcEENS_9allocatorIcEEEC1B8ue170006EOS5_, symObjAddr: 0x7028, symBinAddr: 0x1000096A8, symSize: 0x34 }
  - { offsetInCU: 0x5F847, offset: 0x5F847, size: 0x8, addend: 0x0, symName: __ZNSt3__112basic_stringIcNS_11char_traitsIcEENS_9allocatorIcEEEC2B8ue170006EOS5_, symObjAddr: 0x705C, symBinAddr: 0x1000096DC, symSize: 0x48 }
  - { offsetInCU: 0x5F887, offset: 0x5F887, size: 0x8, addend: 0x0, symName: __ZNSt3__119__to_address_helperINS_16reverse_iteratorIPNS_12basic_stringIcNS_11char_traitsIcEENS_9allocatorIcEEEEEEvE6__callB8ue170006ERKS9_, symObjAddr: 0x70A4, symBinAddr: 0x100009724, symSize: 0x38 }
  - { offsetInCU: 0x5F8AB, offset: 0x5F8AB, size: 0x8, addend: 0x0, symName: __ZNKSt3__116reverse_iteratorIPNS_12basic_stringIcNS_11char_traitsIcEENS_9allocatorIcEEEEEptB8ue170006Ev, symObjAddr: 0x70DC, symBinAddr: 0x10000975C, symSize: 0x24 }
  - { offsetInCU: 0x5F8D1, offset: 0x5F8D1, size: 0x8, addend: 0x0, symName: __ZNSt3__128__exception_guard_exceptionsINS_29_AllocatorDestroyRangeReverseINS_9allocatorINS_12basic_stringIcNS_11char_traitsIcEENS2_IcEEEEEENS_16reverse_iteratorIPS7_EEEEED2B8ue170006Ev, symObjAddr: 0x7100, symBinAddr: 0x100009780, symSize: 0x50 }
  - { offsetInCU: 0x5F8FB, offset: 0x5F8FB, size: 0x8, addend: 0x0, symName: __ZNKSt3__129_AllocatorDestroyRangeReverseINS_9allocatorINS_12basic_stringIcNS_11char_traitsIcEENS1_IcEEEEEENS_16reverse_iteratorIPS6_EEEclB8ue170006Ev, symObjAddr: 0x7150, symBinAddr: 0x1000097D0, symSize: 0xB4 }
  - { offsetInCU: 0x5F922, offset: 0x5F922, size: 0x8, addend: 0x0, symName: __ZNSt3__116reverse_iteratorINS0_IPNS_12basic_stringIcNS_11char_traitsIcEENS_9allocatorIcEEEEEEEC1B8ue170006ES8_, symObjAddr: 0x7274, symBinAddr: 0x1000098F4, symSize: 0x3C }
  - { offsetInCU: 0x5F95B, offset: 0x5F95B, size: 0x8, addend: 0x0, symName: __ZNSt3__116reverse_iteratorINS0_IPNS_12basic_stringIcNS_11char_traitsIcEENS_9allocatorIcEEEEEEEppB8ue170006Ev, symObjAddr: 0x7334, symBinAddr: 0x1000099B4, symSize: 0x30 }
  - { offsetInCU: 0x5F981, offset: 0x5F981, size: 0x8, addend: 0x0, symName: __ZNKSt3__116reverse_iteratorINS0_IPNS_12basic_stringIcNS_11char_traitsIcEENS_9allocatorIcEEEEEEE4baseB8ue170006Ev, symObjAddr: 0x7364, symBinAddr: 0x1000099E4, symSize: 0x24 }
  - { offsetInCU: 0x5F9AD, offset: 0x5F9AD, size: 0x8, addend: 0x0, symName: __ZNSt3__119__to_address_helperINS_16reverse_iteratorINS1_IPNS_12basic_stringIcNS_11char_traitsIcEENS_9allocatorIcEEEEEEEEvE6__callB8ue170006ERKSA_, symObjAddr: 0x7388, symBinAddr: 0x100009A08, symSize: 0x38 }
  - { offsetInCU: 0x5F9D1, offset: 0x5F9D1, size: 0x8, addend: 0x0, symName: __ZNKSt3__116reverse_iteratorINS0_IPNS_12basic_stringIcNS_11char_traitsIcEENS_9allocatorIcEEEEEEEptB8ue170006Ev, symObjAddr: 0x73C0, symBinAddr: 0x100009A40, symSize: 0x24 }
  - { offsetInCU: 0x5F9F7, offset: 0x5F9F7, size: 0x8, addend: 0x0, symName: __ZNKSt3__116reverse_iteratorINS0_IPNS_12basic_stringIcNS_11char_traitsIcEENS_9allocatorIcEEEEEEEdeB8ue170006Ev, symObjAddr: 0x73E4, symBinAddr: 0x100009A64, symSize: 0x34 }
  - { offsetInCU: 0x5FA2C, offset: 0x5FA2C, size: 0x8, addend: 0x0, symName: __ZNSt3__116reverse_iteratorIPNS_12basic_stringIcNS_11char_traitsIcEENS_9allocatorIcEEEEEmmB8ue170006Ev, symObjAddr: 0x7418, symBinAddr: 0x100009A98, symSize: 0x20 }
  - { offsetInCU: 0x5FA52, offset: 0x5FA52, size: 0x8, addend: 0x0, symName: __ZNSt3__116reverse_iteratorINS0_IPNS_12basic_stringIcNS_11char_traitsIcEENS_9allocatorIcEEEEEEEC2B8ue170006ES8_, symObjAddr: 0x7438, symBinAddr: 0x100009AB8, symSize: 0x2C }
  - { offsetInCU: 0x5FA8B, offset: 0x5FA8B, size: 0x8, addend: 0x0, symName: __ZNSt3__116reverse_iteratorIPNS_12basic_stringIcNS_11char_traitsIcEENS_9allocatorIcEEEEEC2B8ue170006ES7_, symObjAddr: 0x7464, symBinAddr: 0x100009AE4, symSize: 0x28 }
  - { offsetInCU: 0x5FAC4, offset: 0x5FAC4, size: 0x8, addend: 0x0, symName: __ZNSt3__114__split_bufferINS_12basic_stringIcNS_11char_traitsIcEENS_9allocatorIcEEEERNS4_IS6_EEED2Ev, symObjAddr: 0x748C, symBinAddr: 0x100009B0C, symSize: 0x8C }
  - { offsetInCU: 0x5FAF0, offset: 0x5FAF0, size: 0x8, addend: 0x0, symName: __ZNSt3__114__split_bufferINS_12basic_stringIcNS_11char_traitsIcEENS_9allocatorIcEEEERNS4_IS6_EEE5clearB8ue170006Ev, symObjAddr: 0x7518, symBinAddr: 0x100009B98, symSize: 0x28 }
  - { offsetInCU: 0x5FB16, offset: 0x5FB16, size: 0x8, addend: 0x0, symName: __ZNKSt3__114__split_bufferINS_12basic_stringIcNS_11char_traitsIcEENS_9allocatorIcEEEERNS4_IS6_EEE8capacityB8ue170006Ev, symObjAddr: 0x7540, symBinAddr: 0x100009BC0, symSize: 0x40 }
  - { offsetInCU: 0x5FB3C, offset: 0x5FB3C, size: 0x8, addend: 0x0, symName: __ZNSt3__114__split_bufferINS_12basic_stringIcNS_11char_traitsIcEENS_9allocatorIcEEEERNS4_IS6_EEE17__destruct_at_endB8ue170006EPS6_, symObjAddr: 0x7580, symBinAddr: 0x100009C00, symSize: 0x2C }
  - { offsetInCU: 0x5FB71, offset: 0x5FB71, size: 0x8, addend: 0x0, symName: __ZNSt3__114__split_bufferINS_12basic_stringIcNS_11char_traitsIcEENS_9allocatorIcEEEERNS4_IS6_EEE17__destruct_at_endB8ue170006EPS6_NS_17integral_constantIbLb0EEE, symObjAddr: 0x75AC, symBinAddr: 0x100009C2C, symSize: 0x80 }
  - { offsetInCU: 0x5FBB3, offset: 0x5FBB3, size: 0x8, addend: 0x0, symName: __ZNKSt3__114__split_bufferINS_12basic_stringIcNS_11char_traitsIcEENS_9allocatorIcEEEERNS4_IS6_EEE9__end_capB8ue170006Ev, symObjAddr: 0x762C, symBinAddr: 0x100009CAC, symSize: 0x28 }
  - { offsetInCU: 0x5FBD9, offset: 0x5FBD9, size: 0x8, addend: 0x0, symName: __ZNKSt3__117__compressed_pairIPNS_12basic_stringIcNS_11char_traitsIcEENS_9allocatorIcEEEERNS4_IS6_EEE5firstB8ue170006Ev, symObjAddr: 0x7654, symBinAddr: 0x100009CD4, symSize: 0x24 }
  - { offsetInCU: 0x5FBFF, offset: 0x5FBFF, size: 0x8, addend: 0x0, symName: __ZNSt3__16vectorINS_12basic_stringIcNS_11char_traitsIcEENS_9allocatorIcEEEENS4_IS6_EEE11__make_iterB8ue170006EPS6_, symObjAddr: 0x7678, symBinAddr: 0x100009CF8, symSize: 0x30 }
  - { offsetInCU: 0x5FC35, offset: 0x5FC35, size: 0x8, addend: 0x0, symName: __ZNSt3__111__wrap_iterIPNS_12basic_stringIcNS_11char_traitsIcEENS_9allocatorIcEEEEEC1B8ue170006ES7_, symObjAddr: 0x76A8, symBinAddr: 0x100009D28, symSize: 0x34 }
  - { offsetInCU: 0x5FC6E, offset: 0x5FC6E, size: 0x8, addend: 0x0, symName: __ZNSt3__111__wrap_iterIPNS_12basic_stringIcNS_11char_traitsIcEENS_9allocatorIcEEEEEC2B8ue170006ES7_, symObjAddr: 0x76DC, symBinAddr: 0x100009D5C, symSize: 0x20 }
  - { offsetInCU: 0x5FCAD, offset: 0x5FCAD, size: 0x8, addend: 0x0, symName: __ZNSt3__16vectorI7AstNodeNS_9allocatorIS1_EEE22__construct_one_at_endB8ue170006IJS1_EEEvDpOT_, symObjAddr: 0x76FC, symBinAddr: 0x100009D7C, symSize: 0x90 }
  - { offsetInCU: 0x5FCFE, offset: 0x5FCFE, size: 0x8, addend: 0x0, symName: __ZNSt3__16vectorI7AstNodeNS_9allocatorIS1_EEE21__push_back_slow_pathIS1_EEvOT_, symObjAddr: 0x778C, symBinAddr: 0x100009E0C, symSize: 0xD8 }
  - { offsetInCU: 0x5FD5F, offset: 0x5FD5F, size: 0x8, addend: 0x0, symName: __ZNSt3__116allocator_traitsINS_9allocatorI7AstNodeEEE9constructB8ue170006IS2_JS2_EvEEvRS3_PT_DpOT0_, symObjAddr: 0x7864, symBinAddr: 0x100009EE4, symSize: 0x34 }
  - { offsetInCU: 0x5FDBA, offset: 0x5FDBA, size: 0x8, addend: 0x0, symName: __ZNSt3__19allocatorI7AstNodeE9constructB8ue170006IS1_JS1_EEEvPT_DpOT0_, symObjAddr: 0x7898, symBinAddr: 0x100009F18, symSize: 0x30 }
  - { offsetInCU: 0x5FE12, offset: 0x5FE12, size: 0x8, addend: 0x0, symName: __ZN7AstNodeC1EOS_, symObjAddr: 0x78C8, symBinAddr: 0x100009F48, symSize: 0x34 }
  - { offsetInCU: 0x5FE47, offset: 0x5FE47, size: 0x8, addend: 0x0, symName: __ZN7AstNodeC2EOS_, symObjAddr: 0x78FC, symBinAddr: 0x100009F7C, symSize: 0x48 }
  - { offsetInCU: 0x5FE7C, offset: 0x5FE7C, size: 0x8, addend: 0x0, symName: __ZNSt3__16vectorI7AstNodeNS_9allocatorIS1_EEEC1B8ue170006EOS4_, symObjAddr: 0x7944, symBinAddr: 0x100009FC4, symSize: 0x34 }
  - { offsetInCU: 0x5FEB8, offset: 0x5FEB8, size: 0x8, addend: 0x0, symName: __ZNSt3__16vectorI7AstNodeNS_9allocatorIS1_EEEC2B8ue170006EOS4_, symObjAddr: 0x7978, symBinAddr: 0x100009FF8, symSize: 0xC4 }
  - { offsetInCU: 0x5FEF4, offset: 0x5FEF4, size: 0x8, addend: 0x0, symName: __ZNSt3__114__split_bufferI7AstNodeRNS_9allocatorIS1_EEEC1EmmS4_, symObjAddr: 0x7A3C, symBinAddr: 0x10000A0BC, symSize: 0x44 }
  - { offsetInCU: 0x5FF4D, offset: 0x5FF4D, size: 0x8, addend: 0x0, symName: __ZNSt3__114__split_bufferI7AstNodeRNS_9allocatorIS1_EEED1Ev, symObjAddr: 0x7B90, symBinAddr: 0x10000A210, symSize: 0x2C }
  - { offsetInCU: 0x5FF79, offset: 0x5FF79, size: 0x8, addend: 0x0, symName: __ZNSt3__114__split_bufferI7AstNodeRNS_9allocatorIS1_EEEC2EmmS4_, symObjAddr: 0x7BBC, symBinAddr: 0x10000A23C, symSize: 0xD4 }
  - { offsetInCU: 0x5FFF1, offset: 0x5FFF1, size: 0x8, addend: 0x0, symName: __ZNSt3__117__compressed_pairIP7AstNodeRNS_9allocatorIS1_EEEC1B8ue170006IDnS5_EEOT_OT0_, symObjAddr: 0x7C90, symBinAddr: 0x10000A310, symSize: 0x3C }
  - { offsetInCU: 0x6004B, offset: 0x6004B, size: 0x8, addend: 0x0, symName: __ZNSt3__114__split_bufferI7AstNodeRNS_9allocatorIS1_EEE7__allocB8ue170006Ev, symObjAddr: 0x7CCC, symBinAddr: 0x10000A34C, symSize: 0x28 }
  - { offsetInCU: 0x60071, offset: 0x60071, size: 0x8, addend: 0x0, symName: __ZNSt3__114__split_bufferI7AstNodeRNS_9allocatorIS1_EEE9__end_capB8ue170006Ev, symObjAddr: 0x7CF4, symBinAddr: 0x10000A374, symSize: 0x28 }
  - { offsetInCU: 0x60097, offset: 0x60097, size: 0x8, addend: 0x0, symName: __ZNSt3__117__compressed_pairIP7AstNodeRNS_9allocatorIS1_EEEC2B8ue170006IDnS5_EEOT_OT0_, symObjAddr: 0x7D1C, symBinAddr: 0x10000A39C, symSize: 0x48 }
  - { offsetInCU: 0x600F1, offset: 0x600F1, size: 0x8, addend: 0x0, symName: __ZNSt3__122__compressed_pair_elemIRNS_9allocatorI7AstNodeEELi1ELb0EEC2B8ue170006IS4_vEEOT_, symObjAddr: 0x7D64, symBinAddr: 0x10000A3E4, symSize: 0x20 }
  - { offsetInCU: 0x60135, offset: 0x60135, size: 0x8, addend: 0x0, symName: __ZNSt3__117__compressed_pairIP7AstNodeRNS_9allocatorIS1_EEE6secondB8ue170006Ev, symObjAddr: 0x7D84, symBinAddr: 0x10000A404, symSize: 0x28 }
  - { offsetInCU: 0x6015B, offset: 0x6015B, size: 0x8, addend: 0x0, symName: __ZNSt3__122__compressed_pair_elemIRNS_9allocatorI7AstNodeEELi1ELb0EE5__getB8ue170006Ev, symObjAddr: 0x7DAC, symBinAddr: 0x10000A42C, symSize: 0x18 }
  - { offsetInCU: 0x60181, offset: 0x60181, size: 0x8, addend: 0x0, symName: __ZNSt3__117__compressed_pairIP7AstNodeRNS_9allocatorIS1_EEE5firstB8ue170006Ev, symObjAddr: 0x7DC4, symBinAddr: 0x10000A444, symSize: 0x24 }
  - { offsetInCU: 0x601A7, offset: 0x601A7, size: 0x8, addend: 0x0, symName: __ZNSt3__129_AllocatorDestroyRangeReverseINS_9allocatorI7AstNodeEENS_16reverse_iteratorIPS2_EEEC1B8ue170006ERS3_RS6_S9_, symObjAddr: 0x7F8C, symBinAddr: 0x10000A60C, symSize: 0x44 }
  - { offsetInCU: 0x60201, offset: 0x60201, size: 0x8, addend: 0x0, symName: __ZNSt3__128__exception_guard_exceptionsINS_29_AllocatorDestroyRangeReverseINS_9allocatorI7AstNodeEENS_16reverse_iteratorIPS3_EEEEE10__completeB8ue170006Ev, symObjAddr: 0x7FD0, symBinAddr: 0x10000A650, symSize: 0x1C }
  - { offsetInCU: 0x60227, offset: 0x60227, size: 0x8, addend: 0x0, symName: __ZNSt3__128__exception_guard_exceptionsINS_29_AllocatorDestroyRangeReverseINS_9allocatorI7AstNodeEENS_16reverse_iteratorIPS3_EEEEED1B8ue170006Ev, symObjAddr: 0x7FEC, symBinAddr: 0x10000A66C, symSize: 0x2C }
  - { offsetInCU: 0x60251, offset: 0x60251, size: 0x8, addend: 0x0, symName: __ZNSt3__128__exception_guard_exceptionsINS_29_AllocatorDestroyRangeReverseINS_9allocatorI7AstNodeEENS_16reverse_iteratorIPS3_EEEEEC1B8ue170006ES8_, symObjAddr: 0x8018, symBinAddr: 0x10000A698, symSize: 0x34 }
  - { offsetInCU: 0x6028B, offset: 0x6028B, size: 0x8, addend: 0x0, symName: __ZNSt3__128__exception_guard_exceptionsINS_29_AllocatorDestroyRangeReverseINS_9allocatorI7AstNodeEENS_16reverse_iteratorIPS3_EEEEEC2B8ue170006ES8_, symObjAddr: 0x804C, symBinAddr: 0x10000A6CC, symSize: 0x30 }
  - { offsetInCU: 0x602C5, offset: 0x602C5, size: 0x8, addend: 0x0, symName: __ZNSt3__129_AllocatorDestroyRangeReverseINS_9allocatorI7AstNodeEENS_16reverse_iteratorIPS2_EEEC2B8ue170006ERS3_RS6_S9_, symObjAddr: 0x807C, symBinAddr: 0x10000A6FC, symSize: 0x38 }
  - { offsetInCU: 0x6031F, offset: 0x6031F, size: 0x8, addend: 0x0, symName: __ZNSt3__128__exception_guard_exceptionsINS_29_AllocatorDestroyRangeReverseINS_9allocatorI7AstNodeEENS_16reverse_iteratorIPS3_EEEEED2B8ue170006Ev, symObjAddr: 0x80B4, symBinAddr: 0x10000A734, symSize: 0x50 }
  - { offsetInCU: 0x60349, offset: 0x60349, size: 0x8, addend: 0x0, symName: __ZNKSt3__129_AllocatorDestroyRangeReverseINS_9allocatorI7AstNodeEENS_16reverse_iteratorIPS2_EEEclB8ue170006Ev, symObjAddr: 0x8104, symBinAddr: 0x10000A784, symSize: 0xB4 }
  - { offsetInCU: 0x60370, offset: 0x60370, size: 0x8, addend: 0x0, symName: __ZNSt3__116reverse_iteratorINS0_IP7AstNodeEEEC1B8ue170006ES3_, symObjAddr: 0x8228, symBinAddr: 0x10000A8A8, symSize: 0x3C }
  - { offsetInCU: 0x603A9, offset: 0x603A9, size: 0x8, addend: 0x0, symName: __ZNSt3__116reverse_iteratorINS0_IP7AstNodeEEEppB8ue170006Ev, symObjAddr: 0x82E8, symBinAddr: 0x10000A968, symSize: 0x30 }
  - { offsetInCU: 0x603CF, offset: 0x603CF, size: 0x8, addend: 0x0, symName: __ZNKSt3__116reverse_iteratorINS0_IP7AstNodeEEE4baseB8ue170006Ev, symObjAddr: 0x8318, symBinAddr: 0x10000A998, symSize: 0x24 }
  - { offsetInCU: 0x603FB, offset: 0x603FB, size: 0x8, addend: 0x0, symName: __ZNSt3__119__to_address_helperINS_16reverse_iteratorINS1_IP7AstNodeEEEEvE6__callB8ue170006ERKS5_, symObjAddr: 0x833C, symBinAddr: 0x10000A9BC, symSize: 0x38 }
  - { offsetInCU: 0x6041F, offset: 0x6041F, size: 0x8, addend: 0x0, symName: __ZNKSt3__116reverse_iteratorINS0_IP7AstNodeEEEptB8ue170006Ev, symObjAddr: 0x8374, symBinAddr: 0x10000A9F4, symSize: 0x24 }
  - { offsetInCU: 0x60445, offset: 0x60445, size: 0x8, addend: 0x0, symName: __ZNKSt3__116reverse_iteratorINS0_IP7AstNodeEEEdeB8ue170006Ev, symObjAddr: 0x8398, symBinAddr: 0x10000AA18, symSize: 0x34 }
  - { offsetInCU: 0x6047A, offset: 0x6047A, size: 0x8, addend: 0x0, symName: __ZNSt3__116reverse_iteratorIP7AstNodeEmmB8ue170006Ev, symObjAddr: 0x83CC, symBinAddr: 0x10000AA4C, symSize: 0x20 }
  - { offsetInCU: 0x604A0, offset: 0x604A0, size: 0x8, addend: 0x0, symName: __ZNSt3__116reverse_iteratorINS0_IP7AstNodeEEEC2B8ue170006ES3_, symObjAddr: 0x83EC, symBinAddr: 0x10000AA6C, symSize: 0x2C }
  - { offsetInCU: 0x604D9, offset: 0x604D9, size: 0x8, addend: 0x0, symName: __ZNSt3__114__split_bufferI7AstNodeRNS_9allocatorIS1_EEED2Ev, symObjAddr: 0x8418, symBinAddr: 0x10000AA98, symSize: 0x8C }
  - { offsetInCU: 0x60505, offset: 0x60505, size: 0x8, addend: 0x0, symName: __ZNSt3__114__split_bufferI7AstNodeRNS_9allocatorIS1_EEE5clearB8ue170006Ev, symObjAddr: 0x84A4, symBinAddr: 0x10000AB24, symSize: 0x28 }
  - { offsetInCU: 0x6052B, offset: 0x6052B, size: 0x8, addend: 0x0, symName: __ZNKSt3__114__split_bufferI7AstNodeRNS_9allocatorIS1_EEE8capacityB8ue170006Ev, symObjAddr: 0x84CC, symBinAddr: 0x10000AB4C, symSize: 0x40 }
  - { offsetInCU: 0x60551, offset: 0x60551, size: 0x8, addend: 0x0, symName: __ZNSt3__114__split_bufferI7AstNodeRNS_9allocatorIS1_EEE17__destruct_at_endB8ue170006EPS1_, symObjAddr: 0x850C, symBinAddr: 0x10000AB8C, symSize: 0x2C }
  - { offsetInCU: 0x60586, offset: 0x60586, size: 0x8, addend: 0x0, symName: __ZNSt3__114__split_bufferI7AstNodeRNS_9allocatorIS1_EEE17__destruct_at_endB8ue170006EPS1_NS_17integral_constantIbLb0EEE, symObjAddr: 0x8538, symBinAddr: 0x10000ABB8, symSize: 0x80 }
  - { offsetInCU: 0x605C8, offset: 0x605C8, size: 0x8, addend: 0x0, symName: __ZNKSt3__114__split_bufferI7AstNodeRNS_9allocatorIS1_EEE9__end_capB8ue170006Ev, symObjAddr: 0x85B8, symBinAddr: 0x10000AC38, symSize: 0x28 }
  - { offsetInCU: 0x605EE, offset: 0x605EE, size: 0x8, addend: 0x0, symName: __ZNKSt3__117__compressed_pairIP7AstNodeRNS_9allocatorIS1_EEE5firstB8ue170006Ev, symObjAddr: 0x85E0, symBinAddr: 0x10000AC60, symSize: 0x24 }
  - { offsetInCU: 0x60614, offset: 0x60614, size: 0x8, addend: 0x0, symName: __ZN4llvm9IRBuilderINS_14ConstantFolderENS_24IRBuilderDefaultInserterEEC2ERNS_11LLVMContextEPNS_6MDNodeENS_8ArrayRefINS_17OperandBundleDefTIPNS_5ValueEEEEE, symObjAddr: 0x8604, symBinAddr: 0x10000AC84, symSize: 0x7C }
  - { offsetInCU: 0x6066E, offset: 0x6066E, size: 0x8, addend: 0x0, symName: __ZN4llvm13IRBuilderBaseC2ERNS_11LLVMContextERKNS_15IRBuilderFolderERKNS_24IRBuilderDefaultInserterEPNS_6MDNodeENS_8ArrayRefINS_17OperandBundleDefTIPNS_5ValueEEEEE, symObjAddr: 0x8680, symBinAddr: 0x10000AD00, symSize: 0xC8 }
  - { offsetInCU: 0x606E3, offset: 0x606E3, size: 0x8, addend: 0x0, symName: __ZN4llvm14ConstantFolderC1Ev, symObjAddr: 0x8748, symBinAddr: 0x10000ADC8, symSize: 0x2C }
  - { offsetInCU: 0x6070D, offset: 0x6070D, size: 0x8, addend: 0x0, symName: __ZN4llvm24IRBuilderDefaultInserterC1Ev, symObjAddr: 0x8774, symBinAddr: 0x10000ADF4, symSize: 0x2C }
  - { offsetInCU: 0x60739, offset: 0x60739, size: 0x8, addend: 0x0, symName: __ZN4llvm11SmallVectorINSt3__14pairIjPNS_6MDNodeEEELj2EEC1Ev, symObjAddr: 0x87A0, symBinAddr: 0x10000AE20, symSize: 0x2C }
  - { offsetInCU: 0x60763, offset: 0x60763, size: 0x8, addend: 0x0, symName: __ZN4llvm21ilist_iterator_w_bitsINS_12ilist_detail12node_optionsINS_11InstructionELb0ELb0EvLb1EEELb0ELb0EEC1Ev, symObjAddr: 0x87CC, symBinAddr: 0x10000AE4C, symSize: 0x2C }
  - { offsetInCU: 0x6078D, offset: 0x6078D, size: 0x8, addend: 0x0, symName: __ZN4llvm13FastMathFlagsC1Ev, symObjAddr: 0x87F8, symBinAddr: 0x10000AE78, symSize: 0x2C }
  - { offsetInCU: 0x607B7, offset: 0x607B7, size: 0x8, addend: 0x0, symName: __ZN4llvm13IRBuilderBase19ClearInsertionPointEv, symObjAddr: 0x8824, symBinAddr: 0x10000AEA4, symSize: 0x40 }
  - { offsetInCU: 0x607DD, offset: 0x607DD, size: 0x8, addend: 0x0, symName: __ZN4llvm11SmallVectorINSt3__14pairIjPNS_6MDNodeEEELj2EEC2Ev, symObjAddr: 0x8864, symBinAddr: 0x10000AEE4, symSize: 0x30 }
  - { offsetInCU: 0x60807, offset: 0x60807, size: 0x8, addend: 0x0, symName: __ZN4llvm15SmallVectorImplINSt3__14pairIjPNS_6MDNodeEEEEC2Ej, symObjAddr: 0x8894, symBinAddr: 0x10000AF14, symSize: 0x38 }
  - { offsetInCU: 0x60841, offset: 0x60841, size: 0x8, addend: 0x0, symName: __ZN4llvm23SmallVectorTemplateBaseINSt3__14pairIjPNS_6MDNodeEEELb1EEC2Em, symObjAddr: 0x88CC, symBinAddr: 0x10000AF4C, symSize: 0x34 }
  - { offsetInCU: 0x6087B, offset: 0x6087B, size: 0x8, addend: 0x0, symName: __ZN4llvm25SmallVectorTemplateCommonINSt3__14pairIjPNS_6MDNodeEEEvEC2Em, symObjAddr: 0x8900, symBinAddr: 0x10000AF80, symSize: 0x40 }
  - { offsetInCU: 0x608B4, offset: 0x608B4, size: 0x8, addend: 0x0, symName: __ZN4llvm21ilist_iterator_w_bitsINS_12ilist_detail12node_optionsINS_11InstructionELb0ELb0EvLb1EEELb0ELb0EEC2Ev, symObjAddr: 0x8940, symBinAddr: 0x10000AFC0, symSize: 0x18 }
  - { offsetInCU: 0x608DE, offset: 0x608DE, size: 0x8, addend: 0x0, symName: __ZN4llvm13FastMathFlagsC2Ev, symObjAddr: 0x8958, symBinAddr: 0x10000AFD8, symSize: 0x18 }
  - { offsetInCU: 0x60908, offset: 0x60908, size: 0x8, addend: 0x0, symName: __ZN4llvm14ConstantFolderC2Ev, symObjAddr: 0x8970, symBinAddr: 0x10000AFF0, symSize: 0x44 }
  - { offsetInCU: 0x60932, offset: 0x60932, size: 0x8, addend: 0x0, symName: __ZN4llvm15IRBuilderFolderC2Ev, symObjAddr: 0x89B4, symBinAddr: 0x10000B034, symSize: 0x24 }
  - { offsetInCU: 0x6095E, offset: 0x6095E, size: 0x8, addend: 0x0, symName: __ZN4llvm24IRBuilderDefaultInserterC2Ev, symObjAddr: 0x89D8, symBinAddr: 0x10000B058, symSize: 0x24 }
...
